(lp0
(dp1
S'qual'
p2
(lp3
(NS'**NEXT_PRP_OBJ**'
p4
tp5
a(S'RIGHT_OF'
p6
S'black_bottle'
p7
tp8
asS'tgt'
p9
(lp10
S'orange_1'
p11
asa(dp12
g2
(lp13
(S'REL'
p14
(lp15
S'on'
p16
aS'the'
p17
aS'far'
p18
aS'right'
p19
atp20
asg9
(lp21
S'orange_1'
p22
asa(dp23
g2
(lp24
(S'BEHIND'
p25
g4
tp26
a(g6
S'red_cup'
p27
tp28
asg9
(lp29
S'orange_1'
p30
asa(dp31
g2
(lp32
(S'REL'
p33
(lp34
S'furthest'
p35
aS'to'
p36
aS'the'
p37
aS'right'
p38
atp39
asg9
(lp40
S'orange_1'
p41
asa(dp42
g2
(lp43
(S'REL'
p44
(lp45
S'to'
p46
aS'your'
p47
aS'far'
p48
aS'right'
p49
atp50
asg9
(lp51
S'orange_1'
p52
asa(dp53
g2
(lp54
(g6
S'black_bottle'
p55
tp56
asg9
(lp57
S'orange_1'
p58
asa(dp59
g2
(lp60
(S'REL'
p61
(lp62
S'furthest'
p63
aS'right'
p64
atp65
asg9
(lp66
S'orange_1'
p67
asa(dp68
g2
(lp69
(S'REL'
p70
(lp71
S'the'
p72
aS'right'
p73
aS'most'
p74
atp75
asg9
(lp76
S'orange_1'
p77
asa(dp78
g2
(lp79
(g6
S'yellow_bowl'
p80
tp81
asg9
(lp82
S'orange_2'
p83
asa(dp84
g2
(lp85
(S'BETWEEN'
p86
(lp87
S'blue_bowl'
p88
atp89
asg9
(lp90
S'orange_2'
p91
aS'orange_2'
p92
asa(dp93
g2
(lp94
(S'NEAR'
p95
S'VIRTUAL_YOU'
p96
tp97
asg9
(lp98
S'orange_2'
p99
asa(dp100
g2
(lp101
(S'IN_FRONT_OF'
p102
S'yellow_bowl'
p103
tp104
asg9
(lp105
S'orange_2'
p106
asa(dp107
g2
(lp108
(g95
S'red_cup'
p109
tp110
asg9
(lp111
S'orange_2'
p112
asa(dp113
g2
(lp114
(S'REL'
p115
(lp116
S'to'
p117
aS'your'
p118
aS'close'
p119
aS'front'
p120
aS'right'
p121
atp122
asg9
(lp123
S'orange_2'
p124
asa(dp125
g2
(lp126
(g95
S'yellow_bowl'
p127
tp128
asg9
(lp129
S'orange_2'
p130
asa(dp131
g2
(lp132
(g102
S'yellow_bowl'
p133
tp134
asg9
(lp135
S'orange_2'
p136
asa(dp137
g2
(lp138
(g102
S'yellow_bowl'
p139
tp140
asg9
(lp141
S'orange_2'
p142
asa(dp143
g2
(lp144
(g86
(lp145
S'wood_bowl'
p146
aS'blue_bowl'
p147
atp148
a(g95
S'VIRTUAL_YOU'
p149
tp150
asg9
(lp151
S'orange_3'
p152
asa(dp153
g2
(lp154
(g102
S'wood_bowl'
p155
tp156
asg9
(lp157
S'orange_3'
p158
asa(dp159
g2
(lp160
(g95
S'VIRTUAL_YOU'
p161
tp162
a(g86
(lp163
S'wood_bowl'
p164
aS'blue_bowl'
p165
atp166
asg9
(lp167
S'orange_3'
p168
asa(dp169
g2
(lp170
(g86
(lp171
S'VIRTUAL_YOU'
p172
aS'wood_bowl'
p173
atp174
asg9
(lp175
S'orange_3'
p176
asa(dp177
g2
(lp178
(S'LEFT_OF'
p179
S'blue_bowl'
p180
tp181
asg9
(lp182
S'orange_3'
p183
asa(dp184
g2
(lp185
(g86
(lp186
S'blue_bowl'
p187
aS'wood_bowl'
p188
atp189
asg9
(lp190
S'orange_3'
p191
asa(dp192
g2
(lp193
(S'REL'
p194
(lp195
S'to'
p196
aS'your'
p197
aS'close'
p198
aS'left'
p199
atp200
asg9
(lp201
S'orange_3'
p202
asa(dp203
g2
(lp204
(S'REL'
p205
(lp206
S'right'
p207
aS'in'
p208
aS'the'
p209
aS'middle'
p210
atp211
a(g86
(lp212
S'yellow_bowl'
p213
aS'wood_bowl'
p214
atp215
asg9
(lp216
S'orange_4'
p217
asa(dp218
g2
(lp219
(g102
S'lime'
p220
tp221
asg9
(lp222
S'orange_4'
p223
asa(dp224
g2
(lp225
(g95
S'lime'
p226
tp227
asg9
(lp228
S'orange_4'
p229
asa(dp230
g2
(lp231
(g86
(lp232
S'blue_bowl/yellow_bowl/wood_bowl'
p233
atp234
asg9
(lp235
S'orange_4'
p236
asa(dp237
g2
(lp238
(g86
(lp239
S'yellow_bowl'
p240
aS'wood_bowl'
p241
atp242
asg9
(lp243
S'orange_4'
p244
asa(dp245
g2
(lp246
(g179
S'VIRTUAL_YOU'
p247
tp248
a(g86
(lp249
S'yellow_bowl'
p250
atp251
asg9
(lp252
S'orange_4'
p253
asa(dp254
g2
(lp255
(g25
S'blue_bowl'
p256
tp257
a(g102
S'lime'
p258
tp259
asg9
(lp260
S'orange_4'
p261
asa(dp262
g2
(lp263
(g25
S'yellow_bowl'
p264
tp265
asg9
(lp266
S'orange_5'
p267
asa(dp268
g2
(lp269
(g102
S'yellow_bowl'
p270
tp271
asg9
(lp272
S'orange_5'
p273
asa(dp274
g2
(lp275
(g25
S'yellow_bowl'
p276
tp277
asg9
(lp278
S'orange_5'
p279
asa(dp280
g2
(lp281
(g95
g4
tp282
a(g25
S'yellow_bowl'
p283
tp284
asg9
(lp285
S'orange_5'
p286
asa(dp287
g2
(lp288
(g25
S'yellow_bowl'
p289
tp290
asg9
(lp291
S'orange_5'
p292
asa(dp293
g2
(lp294
(g95
S'VIRTUAL_ME'
p295
tp296
asg9
(lp297
sa(dp298
g2
(lp299
(S'FURTHEST'
p300
S'VIRTUAL_YOU'
p301
tp302
asg9
(lp303
S'orange_5'
p304
asa(dp305
g2
(lp306
(g95
S'VIRTUAL_ME'
p307
tp308
asg9
(lp309
S'orange_5'
p310
asa(dp311
g2
(lp312
(g86
(lp313
S'vaseline'
p314
aS'calib_br'
p315
atp316
a(S'REL'
p317
(lp318
S'on'
p319
aS'the'
p320
aS'left'
p321
atp322
asg9
(lp323
S'orange_6'
p324
asa(dp325
g2
(lp326
(g86
(lp327
S'vaseline'
p328
aS'calib_br'
p329
atp330
asg9
(lp331
S'orange_6'
p332
asa(dp333
g2
(lp334
(g6
S'white_spoon'
p335
tp336
asg9
(lp337
S'orange_6'
p338
asa(dp339
g2
(lp340
(S'REL'
p341
(lp342
S'furthest'
p343
aS'left'
p344
atp345
asg9
(lp346
S'orange_6'
p347
asa(dp348
g2
(lp349
(S'REL'
p350
(lp351
S'the'
p352
aS'left'
p353
aS'most'
p354
atp355
asg9
(lp356
S'orange_6'
p357
asa(dp358
g2
(lp359
(S'REL'
p360
(lp361
S'furthest'
p362
aS'to'
p363
aS'your'
p364
aS'left'
p365
atp366
asg9
(lp367
S'orange_6'
p368
asa(dp369
g2
(lp370
(S'REL'
p371
(lp372
S'furthest'
p373
aS'to'
p374
aS'the'
p375
aS'left'
p376
atp377
asg9
(lp378
S'orange_6'
p379
asa(dp380
g2
(lp381
(S'REL'
p382
(lp383
S'all'
p384
aS'the'
p385
aS'way'
p386
aS'to'
p387
aS'the'
p388
aS'left'
p389
atp390
a(g86
(lp391
S'vaseline'
p392
aS'calib_br'
p393
atp394
asg9
(lp395
S'orange_6'
p396
asa(dp397
g2
(lp398
(g95
S'**UNKNOWN**'
p399
tp400
asg9
(lp401
S'orange_7'
p402
asa(dp403
g2
(lp404
(g95
S'VIRTUAL_ME'
p405
tp406
asg9
(lp407
S'orange_7'
p408
asa(dp409
g2
(lp410
(g95
S'VIRTUAL_ME'
p411
tp412
asg9
(lp413
S'orange_7'
p414
asa(dp415
g2
(lp416
(g95
S'VIRTUAL_ME'
p417
tp418
asg9
(lp419
S'orange_7'
p420
asa(dp421
g2
(lp422
(g300
S'VIRTUAL_YOU'
p423
tp424
asg9
(lp425
S'orange_7'
p426
asa(dp427
g2
(lp428
(g300
S'VIRTUAL_YOU'
p429
tp430
asg9
(lp431
S'orange_7'
p432
asa(dp433
g2
(lp434
(g25
S'lime'
p435
tp436
a(g95
S'VIRTUAL_ME'
p437
tp438
asg9
(lp439
S'orange_7'
p440
asa(dp441
g2
(lp442
(g95
S'VIRTUAL_ME'
p443
tp444
asg9
(lp445
S'orange_7'
p446
asa(dp447
g2
(lp448
(S'REL'
p449
(lp450
S'furthest'
p451
aS'away'
p452
atp453
a(g102
S'VIRTUAL_YOU'
p454
tp455
asg9
(lp456
S'orange_7'
p457
asa(dp458
g2
(lp459
(g25
S'white_spoon'
p460
tp461
asg9
(lp462
S'orange_1'
p463
asa(dp464
g2
(lp465
(g25
S'white_spoon'
p466
tp467
asg9
(lp468
S'orange_1'
p469
asa(dp470
g2
(lp471
(g86
(lp472
S'white_spoon'
p473
aS'black_bottle'
p474
atp475
asg9
(lp476
S'orange_1'
p477
asa(dp478
g2
(lp479
(g25
S'white_spoon'
p480
tp481
asg9
(lp482
S'orange_1'
p483
asa(dp484
g2
(lp485
(S'REL'
p486
(lp487
S'furthest'
p488
aS'to'
p489
aS'your'
p490
aS'right'
p491
atp492
asg9
(lp493
S'orange_1'
p494
asa(dp495
g2
(lp496
(S'REL'
p497
(lp498
S'furthest'
p499
aS'to'
p500
aS'the'
p501
aS'right'
p502
atp503
asg9
(lp504
S'orange_1'
p505
asa(dp506
g2
(lp507
(S'REL'
p508
(lp509
S'the'
p510
aS'right'
p511
aS'most'
p512
atp513
a(g25
S'white_spoon'
p514
tp515
asg9
(lp516
S'orange_1'
p517
asa(dp518
g2
(lp519
(g6
S'VIRTUAL_YOU'
p520
tp521
asg9
(lp522
S'orange_1'
p523
asa(dp524
g2
(lp525
(g25
S'wood_bowl'
p526
tp527
asg9
(lp528
S'orange_2'
p529
asa(dp530
g2
(lp531
(g86
(lp532
S'lime'
p533
aS'wood_bowl'
p534
atp535
asg9
(lp536
S'orange_2'
p537
asa(dp538
g2
(lp539
(g86
(lp540
S'wood_bowl'
p541
aS'lime'
p542
atp543
asg9
(lp544
S'orange_2'
p545
asa(dp546
g2
(lp547
(g86
(lp548
S'lime'
p549
aS'wood_bowl'
p550
atp551
asg9
(lp552
S'orange_2'
p553
asa(dp554
g2
(lp555
(g102
S'VIRTUAL_YOU'
p556
tp557
asg9
(lp558
S'orange_2'
p559
asa(dp560
g2
(lp561
(g102
S'lime'
p562
tp563
asg9
(lp564
S'orange_2'
p565
asa(dp566
g2
(lp567
(g25
S'wood_bowl'
p568
tp569
asg9
(lp570
S'orange_2'
p571
asa(dp572
g2
(lp573
(g86
(lp574
S'wood_bowl'
p575
aS'lime'
p576
atp577
asg9
(lp578
S'orange_2'
p579
asa(dp580
g2
(lp581
(g86
(lp582
S'wood_bowl'
p583
aS'lime'
p584
atp585
asg9
(lp586
S'orange_2'
p587
asa(dp588
g2
(lp589
(g86
(lp590
S'wood_bowl'
p591
aS'blue_bowl'
p592
atp593
asg9
(lp594
S'orange_3'
p595
asa(dp596
g2
(lp597
(g86
(lp598
S'lime'
p599
aS'blue_bowl'
p600
atp601
asg9
(lp602
S'orange_3'
p603
asa(dp604
g2
(lp605
(g86
(lp606
S'blue_bowl'
p607
aS'wood_bowl'
p608
atp609
asg9
(lp610
S'orange_3'
p611
asa(dp612
g2
(lp613
(g95
S'VIRTUAL_YOU'
p614
tp615
asg9
(lp616
S'orange_3'
p617
asa(dp618
g2
(lp619
(g95
S'VIRTUAL_YOU'
p620
tp621
asg9
(lp622
S'orange_3'
p623
asa(dp624
g2
(lp625
(g86
(lp626
S'blue_bowl'
p627
aS'wood_bowl'
p628
atp629
asg9
(lp630
S'orange_3'
p631
asa(dp632
g2
(lp633
(g86
(lp634
S'blue_bowl'
p635
aS'wood_bowl'
p636
atp637
asg9
(lp638
S'orange_3'
p639
asa(dp640
g2
(lp641
(g95
S'yellow_bowl'
p642
tp643
asg9
(lp644
S'orange_4'
p645
asa(dp646
g2
(lp647
(Ng399
tp648
a(S'REL'
p649
(lp650
S'in'
p651
aS'the'
p652
aS'middle'
p653
atp654
a(g95
S'yellow_bowl'
p655
tp656
asg9
(lp657
sa(dp658
g2
(lp659
(g102
S'yellow_bowl'
p660
tp661
asg9
(lp662
S'orange_4'
p663
asa(dp664
g2
(lp665
(g95
S'yellow_bowl'
p666
tp667
asg9
(lp668
S'orange_4'
p669
asa(dp670
g2
(lp671
(g95
S'yellow_bowl'
p672
tp673
asg9
(lp674
S'orange_4'
p675
asa(dp676
g2
(lp677
(g102
S'yellow_bowl'
p678
tp679
a(g179
S'lime'
p680
tp681
asg9
(lp682
S'orange_4'
p683
asa(dp684
g2
(lp685
(g95
S'yellow_bowl'
p686
tp687
asg9
(lp688
S'orange_4'
p689
asa(dp690
g2
(lp691
(g102
S'blue_bowl'
p692
tp693
asg9
(lp694
S'orange_5'
p695
asa(dp696
g2
(lp697
(g179
S'yellow_bowl'
p698
tp699
asg9
(lp700
S'orange_5'
p701
asa(dp702
g2
(lp703
(g95
S'VIRTUAL_ME'
p704
tp705
asg9
(lp706
S'orange_5'
p707
asa(dp708
g2
(lp709
(g179
S'yellow_bowl'
p710
tp711
asg9
(lp712
S'orange_5'
p713
asa(dp714
g2
(lp715
(g25
S'blue_bowl'
p716
tp717
a(g179
S'yellow_bowl'
p718
tp719
asg9
(lp720
S'orange_5'
p721
asa(dp722
g2
(lp723
(NS'blue_bowl'
p724
tp725
asg9
(lp726
S'orange_5'
p727
asa(dp728
g2
(lp729
(g95
S'VIRTUAL_ME'
p730
tp731
asg9
(lp732
S'orange_5'
p733
asa(dp734
g2
(lp735
(S'REL'
p736
(lp737
S'the'
p738
aS'left'
p739
aS'most'
p740
atp741
asg9
(lp742
S'orange_6'
p743
asa(dp744
g2
(lp745
(S'REL'
p746
(lp747
S'on'
p748
aS'the'
p749
aS'far'
p750
aS'left'
p751
atp752
asg9
(lp753
S'orange_6'
p754
asa(dp755
g2
(lp756
(S'REL'
p757
(lp758
S'to'
p759
aS'the'
p760
aS'far'
p761
aS'right'
p762
atp763
asg9
(lp764
S'orange_6'
p765
asa(dp766
g2
(lp767
(g25
S'vaseline'
p768
tp769
asg9
(lp770
S'orange_6'
p771
asa(dp772
g2
(lp773
(S'REL'
p774
(lp775
S'furthest'
p776
aS'to'
p777
aS'the'
p778
aS'left'
p779
atp780
asg9
(lp781
S'orange_6'
p782
asa(dp783
g2
(lp784
(S'REL'
p785
(lp786
S'on'
p787
aS'the'
p788
aS'far'
p789
aS'left'
p790
atp791
asg9
(lp792
S'orange_6'
p793
asa(dp794
g2
(lp795
(S'REL'
p796
(lp797
S'furthest'
p798
aS'to'
p799
aS'the'
p800
aS'left'
p801
atp802
asg9
(lp803
S'orange_6'
p804
asa(dp805
g2
(lp806
(S'REL'
p807
(lp808
S'on'
p809
aS'the'
p810
aS"robot's"
p811
aS'far'
p812
aS'left'
p813
atp814
asg9
(lp815
S'orange_6'
p816
asa(dp817
g2
(lp818
(S'REL'
p819
(lp820
S'on'
p821
aS'the'
p822
aS'far'
p823
aS'right'
p824
atp825
asg9
(lp826
S'orange_1'
p827
asa(dp828
g2
(lp829
(g179
S'calib_tl'
p830
tp831
a(S'REL'
p832
(lp833
S'to'
p834
aS'your'
p835
aS'right'
p836
atp837
asg9
(lp838
S'orange_1'
p839
asa(dp840
g2
(lp841
(g86
(lp842
S'red_cup'
p843
aS'wood_bowl'
p844
atp845
asg9
(lp846
S'orange_1'
p847
asa(dp848
g2
(lp849
(g86
(lp850
S'red_cup'
p851
aS'wood_bowl'
p852
atp853
asg9
(lp854
S'orange_1'
p855
asa(dp856
g2
(lp857
(g86
(lp858
S'wood_bowl'
p859
aS'red_cup'
p860
atp861
asg9
(lp862
S'orange_1'
p863
asa(dp864
g2
(lp865
(S'REL'
p866
(lp867
S'to'
p868
aS'your'
p869
aS'near'
p870
aS'left'
p871
atp872
asg9
(lp873
S'orange_1'
p874
asa(dp875
g2
(lp876
(S'REL'
p877
(lp878
S'furthest'
p879
aS'to'
p880
aS'the'
p881
aS'right'
p882
atp883
asg9
(lp884
S'orange_1'
p885
asa(dp886
g2
(lp887
(g95
S'red_cup'
p888
tp889
asg9
(lp890
S'orange_1'
p891
asa(dp892
g2
(lp893
(g102
S'red_cup'
p894
tp895
asg9
(lp896
S'orange_1'
p897
asa(dp898
g2
(lp899
(g102
S'VIRTUAL_YOU'
p900
tp901
asg9
(lp902
S'orange_2'
p903
asa(dp904
g2
(lp905
(g86
(lp906
S'lime'
p907
aS'wood_bowl'
p908
atp909
asg9
(lp910
S'orange_2'
p911
asa(dp912
g2
(lp913
(g86
(lp914
S'wood_bowl'
p915
aS'lime'
p916
atp917
asg9
(lp918
S'orange_2'
p919
asa(dp920
g2
(lp921
(g102
S'wood_bowl'
p922
tp923
asg9
(lp924
S'orange_2'
p925
asa(dp926
g2
(lp927
(g86
(lp928
S'red_cup'
p929
aS'lime'
p930
atp931
asg9
(lp932
S'orange_2'
p933
asa(dp934
g2
(lp935
(g86
(lp936
S'lime'
p937
aS'wood_bowl'
p938
atp939
asg9
(lp940
S'orange_2'
p941
asa(dp942
g2
(lp943
(g86
(lp944
S'wood_bowl'
p945
aS'lime'
p946
atp947
asg9
(lp948
S'orange_2'
p949
asa(dp950
g2
(lp951
(g102
S'lime'
p952
tp953
asg9
(lp954
S'orange_2'
p955
asa(dp956
g2
(lp957
(S'REL'
p958
(lp959
S'in'
p960
aS'the'
p961
aS'middle'
p962
atp963
a(g86
(lp964
S'white_spoon'
p965
aS'wood_bowl'
p966
atp967
asg9
(lp968
S'orange_3'
p969
asa(dp970
g2
(lp971
(g25
S'yellow_bowl'
p972
tp973
asg9
(lp974
S'orange_3'
p975
asa(dp976
g2
(lp977
(g25
S'yellow_bowl'
p978
tp979
asg9
(lp980
S'orange_3'
p981
asa(dp982
g2
(lp983
(S'REL'
p984
(lp985
S'in'
p986
aS'the'
p987
aS'middle'
p988
atp989
a(g6
S'white_spoon'
p990
tp991
asg9
(lp992
S'orange_3'
p993
asa(dp994
g2
(lp995
(S'REL'
p996
(lp997
S'the'
p998
aS'third'
p999
aS'over'
p1000
aS'from'
p1001
aS'your'
p1002
aS'right'
p1003
atp1004
asg9
(lp1005
S'orange_3'
p1006
asa(dp1007
g2
(lp1008
(g86
(lp1009
S'white_spoon'
p1010
aS'wood_bowl'
p1011
atp1012
asg9
(lp1013
S'orange_3'
p1014
asa(dp1015
g2
(lp1016
(g86
(lp1017
S'wood_bowl'
p1018
aS'yellow_bowl'
p1019
atp1020
asg9
(lp1021
sa(dp1022
g2
(lp1023
(g25
S'white_spoon'
p1024
tp1025
asg9
(lp1026
S'orange_4'
p1027
asa(dp1028
g2
(lp1029
(g25
S'white_spoon'
p1030
tp1031
asg9
(lp1032
S'orange_4'
p1033
asa(dp1034
g2
(lp1035
(g25
S'yellow_bowl'
p1036
tp1037
a(g25
S'white_spoon'
p1038
tp1039
asg9
(lp1040
S'orange_4'
p1041
asa(dp1042
g2
(lp1043
(g102
S'white_spoon'
p1044
tp1045
asg9
(lp1046
S'orange_4'
p1047
asa(dp1048
g2
(lp1049
(g25
S'white_spoon'
p1050
tp1051
a(g25
S'yellow_bowl'
p1052
tp1053
asg9
(lp1054
S'orange_4'
p1055
asa(dp1056
g2
(lp1057
(g25
S'white_spoon'
p1058
tp1059
asg9
(lp1060
S'orange_4'
p1061
asa(dp1062
g2
(lp1063
(g95
S'VIRTUAL_ME'
p1064
tp1065
asg9
(lp1066
S'orange_4'
p1067
asa(dp1068
g2
(lp1069
(g300
S'VIRTUAL_YOU'
p1070
tp1071
asg9
(lp1072
S'orange_4'
p1073
asa(dp1074
g2
(lp1075
(g86
(lp1076
S'white_spoon'
p1077
aS'vaseline'
p1078
atp1079
asg9
(lp1080
S'orange_5'
p1081
asa(dp1082
g2
(lp1083
(S'REL'
p1084
(lp1085
S'on'
p1086
aS'the'
p1087
aS'left'
p1088
aS'side'
p1089
atp1090
a(NS'white_spoon'
p1091
tp1092
a(NS'blue_bowl'
p1093
tp1094
asg9
(lp1095
S'orange_5'
p1096
asa(dp1097
g2
(lp1098
(g25
g4
tp1099
a(g179
S'blue_bowl'
p1100
tp1101
asg9
(lp1102
S'orange_5'
p1103
asa(dp1104
g2
(lp1105
(g25
S'blue_bowl'
p1106
tp1107
asg9
(lp1108
S'orange_5'
p1109
asa(dp1110
g2
(lp1111
(g86
(lp1112
S'white_spoon'
p1113
aS'calib_br'
p1114
atp1115
asg9
(lp1116
S'orange_5'
p1117
asa(dp1118
g2
(lp1119
(g25
S'blue_bowl'
p1120
tp1121
asg9
(lp1122
S'orange_5'
p1123
asa(dp1124
g2
(lp1125
(S'REL'
p1126
(lp1127
S'to'
p1128
aS'your'
p1129
aS'top'
p1130
aS'left'
p1131
atp1132
asg9
(lp1133
S'orange_5'
p1134
asa(dp1135
g2
(lp1136
(g6
S'blue_bowl'
p1137
tp1138
asg9
(lp1139
S'orange_6'
p1140
asa(dp1141
g2
(lp1142
(g86
(lp1143
S'calib_tr'
p1144
aS'vaseline'
p1145
atp1146
asg9
(lp1147
S'orange_6'
p1148
asa(dp1149
g2
(lp1150
(S'REL'
p1151
(lp1152
S'furthest'
p1153
aS'to'
p1154
aS'the'
p1155
aS'left'
p1156
atp1157
asg9
(lp1158
S'orange_6'
p1159
asa(dp1160
g2
(lp1161
(g179
S'blue_bowl'
p1162
tp1163
asg9
(lp1164
S'orange_6'
p1165
asa(dp1166
g2
(lp1167
(g6
S'blue_bowl'
p1168
tp1169
asg9
(lp1170
S'orange_6'
p1171
asa(dp1172
g2
(lp1173
(g102
S'vaseline'
p1174
tp1175
asg9
(lp1176
S'orange_6'
p1177
asa(dp1178
g2
(lp1179
(g102
S'vaseline'
p1180
tp1181
asg9
(lp1182
S'orange_6'
p1183
asa(dp1184
g2
(lp1185
(g95
S'VIRTUAL_YOU'
p1186
tp1187
a(S'REL'
p1188
(lp1189
S'on'
p1190
aS'your'
p1191
aS'left'
p1192
aS'side'
p1193
atp1194
asg9
(lp1195
S'orange_1'
p1196
asa(dp1197
g2
(lp1198
(S'REL'
p1199
(lp1200
S'on'
p1201
aS'the'
p1202
aS'far'
p1203
aS'right'
p1204
atp1205
a(g95
S'calib_tl'
p1206
tp1207
asg9
(lp1208
S'orange_1'
p1209
asa(dp1210
g2
(lp1211
(g6
S'red_cup'
p1212
tp1213
asg9
(lp1214
S'orange_1'
p1215
asa(dp1216
g2
(lp1217
(g6
S'red_cup'
p1218
tp1219
asg9
(lp1220
S'orange_1'
p1221
asa(dp1222
g2
(lp1223
(S'REL'
p1224
(lp1225
S'on'
p1226
aS'the'
p1227
aS'far'
p1228
aS'right'
p1229
atp1230
a(g95
S'VIRTUAL_YOU'
p1231
tp1232
asg9
(lp1233
S'orange_1'
p1234
asa(dp1235
g2
(lp1236
(g86
(lp1237
S'calib_tl'
p1238
aS'garlic_press'
p1239
atp1240
asg9
(lp1241
S'orange_1'
p1242
asa(dp1243
g2
(lp1244
(NS'VIRTUAL_TABLE'
p1245
tp1246
asg9
(lp1247
S'orange_1'
p1248
asa(dp1249
g2
(lp1250
(g6
S'calib_tl'
p1251
tp1252
asg9
(lp1253
S'orange_1'
p1254
asa(dp1255
g2
(lp1256
(g6
S'red_cup'
p1257
tp1258
asg9
(lp1259
S'orange_1'
p1260
asa(dp1261
g2
(lp1262
(S'REL'
p1263
(lp1264
S'furthest'
p1265
aS'to'
p1266
aS'the'
p1267
aS'right'
p1268
atp1269
asg9
(lp1270
S'orange_2'
p1271
asa(dp1272
g2
(lp1273
(g6
g4
tp1274
a(g95
S'garlic_press'
p1275
tp1276
asg9
(lp1277
S'orange_2'
p1278
asa(dp1279
g2
(lp1280
(S'REL'
p1281
(lp1282
S'on'
p1283
aS'the'
p1284
aS'far'
p1285
aS'left'
p1286
atp1287
asg9
(lp1288
S'orange_2'
p1289
asa(dp1290
g2
(lp1291
(g6
S'garlic_press'
p1292
tp1293
asg9
(lp1294
S'orange_2'
p1295
asa(dp1296
g2
(lp1297
(S'REL'
p1298
(lp1299
S'furthest'
p1300
aS'right'
p1301
atp1302
asg9
(lp1303
S'orange_2'
p1304
asa(dp1305
g2
(lp1306
(g25
g4
tp1307
a(g6
S'garlic_press'
p1308
tp1309
asg9
(lp1310
S'orange_2'
p1311
asa(dp1312
g2
(lp1313
(S'REL'
p1314
(lp1315
S'furthest'
p1316
aS'to'
p1317
aS'the'
p1318
aS'right'
p1319
atp1320
asg9
(lp1321
S'orange_2'
p1322
asa(dp1323
g2
(lp1324
(S'REL'
p1325
(lp1326
S'the'
p1327
aS'rightmost'
p1328
atp1329
a(g25
S'white_spoon'
p1330
tp1331
asg9
(lp1332
S'orange_2'
p1333
asa(dp1334
g2
(lp1335
(g6
S'*'
p1336
tp1337
asg9
(lp1338
S'orange_2'
p1339
asa(dp1340
g2
(lp1341
(g300
S'VIRTUAL_YOU'
p1342
tp1343
asg9
(lp1344
S'orange_3'
p1345
asa(dp1346
g2
(lp1347
(g86
(lp1348
S'VIRTUAL_ME'
p1349
aS'garlic_press'
p1350
atp1351
asg9
(lp1352
S'orange_3'
p1353
asa(dp1354
g2
(lp1355
(g6
S'garlic_press'
p1356
tp1357
asg9
(lp1358
S'orange_3'
p1359
asa(dp1360
g2
(lp1361
(g95
S'VIRTUAL_ME'
p1362
tp1363
a(g86
(lp1364
S'orange_2'
p1365
aS'garlic_press'
p1366
atp1367
asg9
(lp1368
S'orange_3'
p1369
asa(dp1370
g2
(lp1371
(g25
S'garlic_press'
p1372
tp1373
a(g95
S'VIRTUAL_ME'
p1374
tp1375
asg9
(lp1376
S'orange_3'
p1377
asa(dp1378
g2
(lp1379
(g25
S'garlic_press'
p1380
tp1381
asg9
(lp1382
S'orange_3'
p1383
asa(dp1384
g2
(lp1385
(S'REL'
p1386
(lp1387
S'on'
p1388
aS'the'
p1389
aS'right'
p1390
aS'side'
p1391
atp1392
a(g95
S'VIRTUAL_ME'
p1393
tp1394
asg9
(lp1395
S'orange_3'
p1396
asa(dp1397
g2
(lp1398
(S'REL'
p1399
(lp1400
S'in'
p1401
aS'the'
p1402
aS'middle'
p1403
atp1404
a(g86
(lp1405
S'white_spoon'
p1406
aS'red_cup'
p1407
atp1408
asg9
(lp1409
S'orange_4'
p1410
asa(dp1411
g2
(lp1412
(g86
(lp1413
S'red_cup'
p1414
aS'white_spoon'
p1415
atp1416
asg9
(lp1417
S'orange_4'
p1418
asa(dp1419
g2
(lp1420
(g86
(lp1421
S'white_spoon'
p1422
aS'garlic_press'
p1423
atp1424
asg9
(lp1425
S'orange_4'
p1426
asa(dp1427
g2
(lp1428
(g86
(lp1429
S'garlic_press'
p1430
aS'white_spoon'
p1431
atp1432
asg9
(lp1433
S'orange_4'
p1434
asa(dp1435
g2
(lp1436
(g86
(lp1437
S'white_spoon'
p1438
aS'red_cup'
p1439
atp1440
asg9
(lp1441
S'orange_4'
p1442
asa(dp1443
g2
(lp1444
(g86
(lp1445
S'red_cup'
p1446
aS'white_spoon'
p1447
atp1448
asg9
(lp1449
S'orange_4'
p1450
asa(dp1451
g2
(lp1452
(g86
(lp1453
S'white_spoon'
p1454
aS'garlic_press'
p1455
atp1456
asg9
(lp1457
S'orange_4'
p1458
asa(dp1459
g2
(lp1460
(NS'white_spoon'
p1461
tp1462
asg9
(lp1463
S'orange_5'
p1464
asa(dp1465
g2
(lp1466
(g6
S'pickle'
p1467
tp1468
asg9
(lp1469
S'orange_5'
p1470
asa(dp1471
g2
(lp1472
(g25
S'white_spoon'
p1473
tp1474
asg9
(lp1475
S'orange_5'
p1476
asa(dp1477
g2
(lp1478
(S'REL'
p1479
(lp1480
S'right'
p1481
aS'in'
p1482
aS'the'
p1483
aS'middle'
p1484
atp1485
a(g95
S'white_spoon'
p1486
tp1487
asg9
(lp1488
sa(dp1489
g2
(lp1490
(S'REL'
p1491
(lp1492
S'right'
p1493
aS'in'
p1494
aS'the'
p1495
aS'middle'
p1496
atp1497
a(g86
(lp1498
S'pickle'
p1499
aS'white_spoon'
p1500
atp1501
asg9
(lp1502
S'orange_5'
p1503
asa(dp1504
g2
(lp1505
(NS'white_spoon'
p1506
tp1507
asg9
(lp1508
S'orange_5'
p1509
asa(dp1510
g2
(lp1511
(g86
(lp1512
S'garlic_press'
p1513
aS'pickle'
p1514
atp1515
a(g25
S'white_spoon'
p1516
tp1517
asg9
(lp1518
S'orange_5'
p1519
asa(dp1520
g2
(lp1521
(S'REL'
p1522
(lp1523
S'furthest'
p1524
aS'to'
p1525
aS'the'
p1526
aS'left'
p1527
atp1528
a(g95
S'VIRTUAL_ME'
p1529
tp1530
asg9
(lp1531
S'orange_6'
p1532
asa(dp1533
g2
(lp1534
(g25
S'pickle'
p1535
tp1536
asg9
(lp1537
S'orange_6'
p1538
asa(dp1539
g2
(lp1540
(g25
S'pickle'
p1541
tp1542
asg9
(lp1543
S'orange_6'
p1544
asa(dp1545
g2
(lp1546
(g25
S'pickle'
p1547
tp1548
asg9
(lp1549
S'orange_6'
p1550
asa(dp1551
g2
(lp1552
(g25
S'pickle'
p1553
tp1554
asg9
(lp1555
S'orange_6'
p1556
asa(dp1557
g2
(lp1558
(NS'pickle'
p1559
tp1560
asg9
(lp1561
S'orange_6'
p1562
asa(dp1563
g2
(lp1564
(g25
S'pickle'
p1565
tp1566
asg9
(lp1567
S'orange_6'
p1568
asa(dp1569
g2
(lp1570
(g86
(lp1571
S'pickle'
p1572
atp1573
asg9
(lp1574
S'orange_7'
p1575
asa(dp1576
g2
(lp1577
(g102
S'pickle'
p1578
tp1579
asg9
(lp1580
S'orange_7'
p1581
asa(dp1582
g2
(lp1583
(S'REL'
p1584
(lp1585
S'furthest'
p1586
aS'to'
p1587
aS'your'
p1588
aS'left'
p1589
atp1590
asg9
(lp1591
S'orange_7'
p1592
asa(dp1593
g2
(lp1594
(g86
(lp1595
S'pickle'
p1596
aS'ceramic_cup'
p1597
atp1598
asg9
(lp1599
S'orange_7'
p1600
asa(dp1601
g2
(lp1602
(g86
(lp1603
S'ceramic_cup'
p1604
aS'pickle'
p1605
atp1606
asg9
(lp1607
S'orange_7'
p1608
asa(dp1609
g2
(lp1610
(g86
(lp1611
S'pickle'
p1612
aS'ceramic_cup'
p1613
atp1614
asg9
(lp1615
S'orange_7'
p1616
asa(dp1617
g2
(lp1618
(g179
S'pickle'
p1619
tp1620
asg9
(lp1621
S'orange_7'
p1622
asa(dp1623
g2
(lp1624
(g86
(lp1625
S'ceramic_cup'
p1626
aS'pickle'
p1627
atp1628
asg9
(lp1629
S'orange_7'
p1630
asa(dp1631
g2
(lp1632
(g6
S'ceramic_cup'
p1633
tp1634
asg9
(lp1635
S'orange_1'
p1636
asa(dp1637
g2
(lp1638
(g95
S'VIRTUAL_YOU'
p1639
tp1640
asg9
(lp1641
S'orange_1'
p1642
asa(dp1643
g2
(lp1644
(g102
S'VIRTUAL_YOU'
p1645
tp1646
a(g86
(lp1647
S'red_cup'
p1648
aS'garlic_press'
p1649
atp1650
asg9
(lp1651
S'orange_1'
p1652
asa(dp1653
g2
(lp1654
(g86
(lp1655
S'red_cup'
p1656
aS'garlic_press'
p1657
atp1658
asg9
(lp1659
S'orange_1'
p1660
asa(dp1661
g2
(lp1662
(g95
S'VIRTUAL_YOU'
p1663
tp1664
asg9
(lp1665
S'orange_1'
p1666
asa(dp1667
g2
(lp1668
(g86
(lp1669
S'garlic_press'
p1670
aS'red_cup'
p1671
atp1672
asg9
(lp1673
S'orange_1'
p1674
asa(dp1675
g2
(lp1676
(S'REL'
p1677
(lp1678
S'on'
p1679
aS'the'
p1680
aS'right'
p1681
aS'side'
p1682
atp1683
a(g95
S'VIRTUAL_YOU'
p1684
tp1685
asg9
(lp1686
S'orange_1'
p1687
asa(dp1688
g2
(lp1689
(g86
(lp1690
S'red_cup'
p1691
aS'garlic_press'
p1692
atp1693
asg9
(lp1694
S'orange_1'
p1695
asa(dp1696
g2
(lp1697
(g25
S'red_cup'
p1698
tp1699
asg9
(lp1700
S'orange_2'
p1701
asa(dp1702
g2
(lp1703
(S'REL'
p1704
(lp1705
S'on'
p1706
aS'the'
p1707
aS'far'
p1708
aS'right'
p1709
atp1710
asg9
(lp1711
S'orange_2'
p1712
asa(dp1713
g2
(lp1714
(S'REL'
p1715
(lp1716
S'furthest'
p1717
aS'to'
p1718
aS'the'
p1719
aS'right'
p1720
atp1721
asg9
(lp1722
S'orange_2'
p1723
asa(dp1724
g2
(lp1725
(S'REL'
p1726
(lp1727
S'the'
p1728
aS'furthest'
p1729
aS'to'
p1730
aS'your'
p1731
aS'right'
p1732
atp1733
a(g25
S'red_cup'
p1734
tp1735
asg9
(lp1736
S'orange_2'
p1737
asa(dp1738
g2
(lp1739
(g25
S'red_cup'
p1740
tp1741
asg9
(lp1742
S'orange_2'
p1743
asa(dp1744
g2
(lp1745
(g25
S'red_cup'
p1746
tp1747
asg9
(lp1748
S'orange_2'
p1749
asa(dp1750
g2
(lp1751
(g25
S'red_cup'
p1752
tp1753
asg9
(lp1754
S'orange_2'
p1755
asa(dp1756
g2
(lp1757
(S'REL'
p1758
(lp1759
S'on'
p1760
aS'the'
p1761
aS'far'
p1762
aS'right'
p1763
aS'of'
p1764
atp1765
a(g25
S'red_cup'
p1766
tp1767
asg9
(lp1768
S'orange_2'
p1769
aS'orange_2'
p1770
asa(dp1771
g2
(lp1772
(g25
S'garlic_press'
p1773
tp1774
asg9
(lp1775
S'orange_3'
p1776
asa(dp1777
g2
(lp1778
(S'REL'
p1779
(lp1780
S'on'
p1781
aS'the'
p1782
aS'right'
p1783
aS'side'
p1784
atp1785
a(g95
S'VIRTUAL_ME'
p1786
tp1787
asg9
(lp1788
S'orange_3'
p1789
asa(dp1790
g2
(lp1791
(S'REL'
p1792
(lp1793
S'from'
p1794
aS'the'
p1795
aS'left'
p1796
aS'on'
p1797
aS'the'
p1798
aS'bottom'
p1799
atp1800
asg9
(lp1801
S'orange_3'
p1802
asa(dp1803
g2
(lp1804
(g25
S'garlic_press'
p1805
tp1806
asg9
(lp1807
S'orange_3'
p1808
asa(dp1809
g2
(lp1810
(g25
S'garlic_press'
p1811
tp1812
a(g179
S'syringe'
p1813
tp1814
asg9
(lp1815
S'orange_3'
p1816
asa(dp1817
g2
(lp1818
(g86
(lp1819
S'VIRTUAL_ME'
p1820
aS'garlic_press'
p1821
atp1822
asg9
(lp1823
S'orange_3'
p1824
asa(dp1825
g2
(lp1826
(S'REL'
p1827
(lp1828
S'in'
p1829
aS'the'
p1830
aS'very'
p1831
aS'middle'
p1832
atp1833
a(NS'ceramic_cup'
p1834
tp1835
asg9
(lp1836
S'orange_4'
p1837
asa(dp1838
g2
(lp1839
(S'REL'
p1840
(lp1841
S'the'
p1842
aS'third'
p1843
aS'from'
p1844
aS'your'
p1845
aS'left'
p1846
aS'of'
p1847
atp1848
asg9
(lp1849
S'orange_4'
p1850
aS'orange_4'
p1851
asa(dp1852
g2
(lp1853
(S'REL'
p1854
(lp1855
S'in'
p1856
aS'the'
p1857
aS'middle'
p1858
atp1859
a(g86
(lp1860
S'black_tape'
p1861
aS'garlic_press'
p1862
atp1863
asg9
(lp1864
S'orange_4'
p1865
asa(dp1866
g2
(lp1867
(g25
S'ceramic_cup'
p1868
tp1869
asg9
(lp1870
S'orange_4'
p1871
asa(dp1872
g2
(lp1873
(g86
(lp1874
S'syringe'
p1875
aS'ceramic_cup'
p1876
atp1877
asg9
(lp1878
S'orange_4'
p1879
asa(dp1880
g2
(lp1881
(S'REL'
p1882
(lp1883
S'in'
p1884
aS'the'
p1885
aS'middle'
p1886
atp1887
a(g86
(lp1888
S'black_tape'
p1889
atp1890
asg9
(lp1891
S'orange_4'
p1892
asa(dp1893
g2
(lp1894
(g86
(lp1895
S'black_tape'
p1896
aS'ceramic_cup'
p1897
atp1898
asg9
(lp1899
S'orange_4'
p1900
asa(dp1901
g2
(lp1902
(g25
S'ceramic_cup'
p1903
tp1904
asg9
(lp1905
S'orange_4'
p1906
asa(dp1907
g2
(lp1908
(g95
S'pickle'
p1909
tp1910
asg9
(lp1911
S'orange_5'
p1912
asa(dp1913
g2
(lp1914
(g86
(lp1915
S'pickle'
p1916
aS'black_tape'
p1917
atp1918
asg9
(lp1919
S'orange_5'
p1920
asa(dp1921
g2
(lp1922
(g86
(lp1923
S'pickle'
p1924
aS'black_tape'
p1925
atp1926
asg9
(lp1927
S'orange_5'
p1928
asa(dp1929
g2
(lp1930
(g86
(lp1931
S'pickle'
p1932
aS'black_tape'
p1933
atp1934
asg9
(lp1935
S'orange_5'
p1936
asa(dp1937
g2
(lp1938
(NS'orange_4/orange_6'
p1939
tp1940
asg9
(lp1941
S'orange_5'
p1942
asa(dp1943
g2
(lp1944
(g86
(lp1945
S'black_tape'
p1946
aS'pickle'
p1947
atp1948
a(S'REL'
p1949
(lp1950
S'on'
p1951
aS'the'
p1952
aS'left'
p1953
atp1954
asg9
(lp1955
S'orange_5'
p1956
asa(dp1957
g2
(lp1958
(g86
(lp1959
S'pickle'
p1960
aS'black_tape'
p1961
atp1962
asg9
(lp1963
S'orange_5'
p1964
asa(dp1965
g2
(lp1966
(S'REL'
p1967
(lp1968
S'to'
p1969
aS'your'
p1970
aS'very'
p1971
aS'left'
p1972
atp1973
asg9
(lp1974
S'orange_6'
p1975
asa(dp1976
g2
(lp1977
(g86
(lp1978
S'black_tape'
p1979
aS'calib_br'
p1980
atp1981
asg9
(lp1982
S'orange_6'
p1983
asa(dp1984
g2
(lp1985
(g86
(lp1986
S'black_tape'
p1987
aS'calib_br'
p1988
atp1989
asg9
(lp1990
S'orange_6'
p1991
asa(dp1992
g2
(lp1993
(S'REL'
p1994
(lp1995
S'to'
p1996
aS'your'
p1997
aS'far'
p1998
aS'left'
p1999
atp2000
asg9
(lp2001
S'orange_6'
p2002
asa(dp2003
g2
(lp2004
(g179
S'black_tape'
p2005
tp2006
asg9
(lp2007
S'orange_6'
p2008
asa(dp2009
g2
(lp2010
(g86
(lp2011
S'calib_br'
p2012
aS'black_tape'
p2013
atp2014
asg9
(lp2015
S'orange_6'
p2016
asa(dp2017
g2
(lp2018
(S'REL'
p2019
(lp2020
S'furthest'
p2021
aS'to'
p2022
aS'the'
p2023
aS'left'
p2024
atp2025
asg9
(lp2026
S'orange_6'
p2027
asa(dp2028
g2
(lp2029
(S'REL'
p2030
(lp2031
S'to'
p2032
aS'your'
p2033
aS'left'
p2034
atp2035
a(S'REL'
p2036
(lp2037
S'furthest'
p2038
aS'away'
p2039
atp2040
a(g86
(lp2041
S'black_tape'
p2042
aS'calib_br'
p2043
atp2044
asg9
(lp2045
S'orange_6'
p2046
asa(dp2047
g2
(lp2048
(S'REL'
p2049
(lp2050
S'on'
p2051
aS'the'
p2052
aS'far'
p2053
aS'right'
p2054
atp2055
asg9
(lp2056
S'orange_1'
p2057
asa(dp2058
g2
(lp2059
(g25
S'black_tape'
p2060
tp2061
asg9
(lp2062
S'orange_1'
p2063
asa(dp2064
g2
(lp2065
(NS'black_tape'
p2066
tp2067
asg9
(lp2068
S'orange_1'
p2069
asa(dp2070
g2
(lp2071
(g95
S'red_cup'
p2072
tp2073
asg9
(lp2074
S'orange_1'
p2075
asa(dp2076
g2
(lp2077
(S'REL'
p2078
(lp2079
S'furthest'
p2080
aS'to'
p2081
aS'the'
p2082
aS'right'
p2083
atp2084
asg9
(lp2085
S'orange_1'
p2086
asa(dp2087
g2
(lp2088
(g86
(lp2089
S'black_tape'
p2090
aS'garlic_press'
p2091
atp2092
asg9
(lp2093
S'orange_1'
p2094
asa(dp2095
g2
(lp2096
(g86
(lp2097
S'black_tape'
p2098
aS'garlic_press'
p2099
atp2100
asg9
(lp2101
S'orange_1'
p2102
asa(dp2103
g2
(lp2104
(g86
(lp2105
S'red_cup'
p2106
aS'garlic_press'
p2107
atp2108
asg9
(lp2109
S'orange_2'
p2110
asa(dp2111
g2
(lp2112
(g179
S'syringe'
p2113
tp2114
asg9
(lp2115
S'orange_2'
p2116
asa(dp2117
g2
(lp2118
(g179
S'garlic_press'
p2119
tp2120
asg9
(lp2121
S'orange_2'
p2122
asa(dp2123
g2
(lp2124
(g86
(lp2125
S'syringe'
p2126
aS'garlic_press'
p2127
atp2128
asg9
(lp2129
S'orange_2'
p2130
asa(dp2131
g2
(lp2132
(g95
S'VIRTUAL_TABLE'
p2133
tp2134
asg9
(lp2135
S'orange_2'
p2136
asa(dp2137
g2
(lp2138
(g86
(lp2139
S'red_cup'
p2140
aS'garlic_press'
p2141
atp2142
asg9
(lp2143
S'orange_2'
p2144
asa(dp2145
g2
(lp2146
(S'REL'
p2147
(lp2148
S'the'
p2149
aS'second'
p2150
atp2151
a(S'REL'
p2152
(lp2153
S'from'
p2154
aS'your'
p2155
aS'right'
p2156
atp2157
asg9
(lp2158
S'orange_2'
p2159
aS'orange_2'
p2160
asa(dp2161
g2
(lp2162
(NS'red_cup'
p2163
tp2164
asg9
(lp2165
S'orange_2'
p2166
asa(dp2167
g2
(lp2168
(g95
S'VIRTUAL_YOU'
p2169
tp2170
a(g86
(lp2171
S'red_cup'
p2172
atp2173
asg9
(lp2174
S'orange_3'
p2175
asa(dp2176
g2
(lp2177
(g86
(lp2178
S'red_cup'
p2179
atp2180
asg9
(lp2181
S'orange_3'
p2182
asa(dp2183
g2
(lp2184
(S'REL'
p2185
(lp2186
S'in'
p2187
aS'the'
p2188
aS'middle'
p2189
atp2190
a(g95
S'red_cup'
p2191
tp2192
a(g95
S'ceramic_cup'
p2193
tp2194
a(g95
S'VIRTUAL_YOU'
p2195
tp2196
asg9
(lp2197
sa(dp2198
g2
(lp2199
(g102
S'red_cup'
p2200
tp2201
a(g179
S'ceramic_cup'
p2202
tp2203
asg9
(lp2204
S'orange_3'
p2205
asa(dp2206
g2
(lp2207
(g179
S'red_cup'
p2208
tp2209
asg9
(lp2210
S'orange_3'
p2211
asa(dp2212
g2
(lp2213
(g102
S'VIRTUAL_YOU'
p2214
tp2215
asg9
(lp2216
S'orange_3'
p2217
asa(dp2218
g2
(lp2219
(g102
S'red_cup'
p2220
tp2221
asg9
(lp2222
S'orange_3'
p2223
asa(dp2224
g2
(lp2225
(g95
S'VIRTUAL_YOU'
p2226
tp2227
asg9
(lp2228
S'orange_3'
p2229
asa(dp2230
g2
(lp2231
(g25
S'red_cup'
p2232
tp2233
asg9
(lp2234
S'orange_4'
p2235
asa(dp2236
g2
(lp2237
(S'REL'
p2238
(lp2239
S'on'
p2240
aS'your'
p2241
aS'left'
p2242
aS'side'
p2243
atp2244
a(NS'red_cup'
p2245
tp2246
asg9
(lp2247
S'orange_4'
p2248
asa(dp2249
g2
(lp2250
(g25
S'red_cup'
p2251
tp2252
asg9
(lp2253
S'orange_4'
p2254
asa(dp2255
g2
(lp2256
(g86
(lp2257
S'syringe'
p2258
aS'red_cup'
p2259
atp2260
asg9
(lp2261
S'orange_4'
p2262
asa(dp2263
g2
(lp2264
(g95
S'VIRTUAL_ME'
p2265
tp2266
asg9
(lp2267
S'orange_4'
p2268
asa(dp2269
g2
(lp2270
(g95
S'VIRTUAL_ME'
p2271
tp2272
asg9
(lp2273
S'orange_4'
p2274
asa(dp2275
g2
(lp2276
(g179
S'syringe'
p2277
tp2278
asg9
(lp2279
S'orange_4'
p2280
asa(dp2281
g2
(lp2282
(S'REL'
p2283
(lp2284
S'in'
p2285
aS'the'
p2286
aS'front'
p2287
aS'left'
p2288
atp2289
asg9
(lp2290
S'orange_5'
p2291
asa(dp2292
g2
(lp2293
(NS'pickle'
p2294
tp2295
asg9
(lp2296
S'orange_5'
p2297
asa(dp2298
g2
(lp2299
(g102
S'pickle'
p2300
tp2301
a(g6
S'calib_tr'
p2302
tp2303
asg9
(lp2304
S'orange_5'
p2305
asa(dp2306
g2
(lp2307
(g102
S'pickle'
p2308
tp2309
asg9
(lp2310
S'orange_5'
p2311
asa(dp2312
g2
(lp2313
(g86
(lp2314
S'VIRTUAL_YOU'
p2315
aS'pickle'
p2316
atp2317
asg9
(lp2318
S'orange_5'
p2319
asa(dp2320
g2
(lp2321
(S'REL'
p2322
(lp2323
S'on'
p2324
aS'the'
p2325
aS'left'
p2326
atp2327
a(g86
(lp2328
S'VIRTUAL_YOU'
p2329
aS'pickle'
p2330
atp2331
asg9
(lp2332
S'orange_5'
p2333
asa(dp2334
g2
(lp2335
(g6
S'pickle'
p2336
tp2337
asg9
(lp2338
S'orange_5'
p2339
asa(dp2340
g2
(lp2341
(g25
g4
tp2342
a(g179
S'pickle'
p2343
tp2344
asg9
(lp2345
S'orange_6'
p2346
asa(dp2347
g2
(lp2348
(g25
g4
tp2349
a(g179
S'pickle'
p2350
tp2351
asg9
(lp2352
S'orange_6'
p2353
asa(dp2354
g2
(lp2355
(S'REL'
p2356
(lp2357
S'on'
p2358
aS'the'
p2359
aS'left'
p2360
aS'side'
p2361
atp2362
a(g86
(lp2363
S'pickle'
p2364
aS'calib_tr'
p2365
atp2366
asg9
(lp2367
S'orange_6'
p2368
asa(dp2369
g2
(lp2370
(g179
S'pickle'
p2371
tp2372
asg9
(lp2373
S'orange_6'
p2374
asa(dp2375
g2
(lp2376
(g86
(lp2377
S'pickle'
p2378
aS'calib_tr'
p2379
atp2380
asg9
(lp2381
S'orange_6'
p2382
asa(dp2383
g2
(lp2384
(g179
S'pickle'
p2385
tp2386
asg9
(lp2387
S'orange_6'
p2388
asa(dp2389
g2
(lp2390
(S'REL'
p2391
(lp2392
S'on'
p2393
aS'the'
p2394
aS'left'
p2395
aS'side'
p2396
atp2397
a(g86
(lp2398
S'pickle'
p2399
aS'calib_tr'
p2400
atp2401
asg9
(lp2402
S'orange_6'
p2403
asa(dp2404
g2
(lp2405
(S'REL'
p2406
(lp2407
S'furthest'
p2408
aS'to'
p2409
aS'the'
p2410
aS'left'
p2411
atp2412
asg9
(lp2413
S'orange_6'
p2414
asa(dp2415
g2
(lp2416
(g25
S'black_tape'
p2417
tp2418
asg9
(lp2419
S'orange_1'
p2420
asa(dp2421
g2
(lp2422
(g6
S'black_tape'
p2423
tp2424
asg9
(lp2425
S'orange_1'
p2426
asa(dp2427
g2
(lp2428
(g86
(lp2429
S'lemon'
p2430
aS'toy_plane'
p2431
atp2432
asg9
(lp2433
S'orange_1'
p2434
asa(dp2435
g2
(lp2436
(g95
S'black_tape'
p2437
tp2438
asg9
(lp2439
S'orange_1'
p2440
asa(dp2441
g2
(lp2442
(g102
S'black_tape'
p2443
tp2444
asg9
(lp2445
S'orange_1'
p2446
asa(dp2447
g2
(lp2448
(g86
(lp2449
S'black_tape'
p2450
atp2451
asg9
(lp2452
S'orange_1'
p2453
asa(dp2454
g2
(lp2455
(NS'black_tape'
p2456
tp2457
asg9
(lp2458
S'orange_1'
p2459
asa(dp2460
g2
(lp2461
(g25
S'black_tape'
p2462
tp2463
asg9
(lp2464
sa(dp2465
g2
(lp2466
(S'REL'
p2467
(lp2468
S'furthest'
p2469
aS'to'
p2470
aS'the'
p2471
aS'right'
p2472
atp2473
asg9
(lp2474
S'orange_1'
p2475
asa(dp2476
g2
(lp2477
(g95
S'VIRTUAL_ME'
p2478
tp2479
asg9
(lp2480
S'orange_2'
p2481
asa(dp2482
g2
(lp2483
(g102
S'VIRTUAL_ME'
p2484
tp2485
asg9
(lp2486
S'orange_2'
p2487
asa(dp2488
g2
(lp2489
(S'REL'
p2490
(lp2491
S'the'
p2492
aS'further'
p2493
atp2494
a(g86
(lp2495
S'toy_plane'
p2496
aS'lemon'
p2497
atp2498
asg9
(lp2499
S'orange_2'
p2500
asa(dp2501
g2
(lp2502
(S'REL'
p2503
(lp2504
S'on'
p2505
aS'the'
p2506
aS'far'
p2507
aS'right'
p2508
atp2509
a(g95
S'VIRTUAL_ME'
p2510
tp2511
asg9
(lp2512
S'orange_2'
p2513
asa(dp2514
g2
(lp2515
(g25
g4
tp2516
a(g179
S'lemon'
p2517
tp2518
asg9
(lp2519
S'orange_2'
p2520
asa(dp2521
g2
(lp2522
(g95
S'VIRTUAL_ME'
p2523
tp2524
asg9
(lp2525
S'orange_2'
p2526
asa(dp2527
g2
(lp2528
(g95
S'VIRTUAL_YOU'
p2529
tp2530
asg9
(lp2531
S'orange_2'
p2532
asa(dp2533
g2
(lp2534
(S'REL'
p2535
(lp2536
S'closest'
p2537
aS'to'
p2538
aS'my'
p2539
aS'left'
p2540
atp2541
asg9
(lp2542
S'orange_2'
p2543
asa(dp2544
g2
(lp2545
(S'REL'
p2546
(lp2547
S'to'
p2548
aS'your'
p2549
aS'far'
p2550
aS'right'
p2551
atp2552
asg9
(lp2553
S'orange_2'
p2554
asa(dp2555
g2
(lp2556
(g86
(lp2557
S'rca_cable'
p2558
aS'black_tape'
p2559
atp2560
asg9
(lp2561
S'orange_3'
p2562
asa(dp2563
g2
(lp2564
(g95
S'VIRTUAL_YOU'
p2565
tp2566
asg9
(lp2567
S'orange_3'
p2568
asa(dp2569
g2
(lp2570
(g102
S'toy_plane'
p2571
tp2572
asg9
(lp2573
S'orange_3'
p2574
asa(dp2575
g2
(lp2576
(g95
S'VIRTUAL_YOU'
p2577
tp2578
asg9
(lp2579
S'orange_3'
p2580
asa(dp2581
g2
(lp2582
(g86
(lp2583
S'black_tape'
p2584
aS'rca_cable'
p2585
atp2586
asg9
(lp2587
S'orange_3'
p2588
asa(dp2589
g2
(lp2590
(g95
S'VIRTUAL_YOU'
p2591
tp2592
asg9
(lp2593
S'orange_3'
p2594
asa(dp2595
g2
(lp2596
(g102
S'toy_plane'
p2597
tp2598
asg9
(lp2599
S'orange_3'
p2600
asa(dp2601
g2
(lp2602
(g86
(lp2603
S'rca_cable'
p2604
aS'syringe'
p2605
atp2606
asg9
(lp2607
S'orange_4'
p2608
asa(dp2609
g2
(lp2610
(S'REL'
p2611
(lp2612
S'in'
p2613
aS'the'
p2614
aS'middle'
p2615
atp2616
asg9
(lp2617
S'orange_4'
p2618
asa(dp2619
g2
(lp2620
(g86
(lp2621
S'rca_cable'
p2622
aS'syringe'
p2623
atp2624
asg9
(lp2625
S'orange_4'
p2626
asa(dp2627
g2
(lp2628
(NS'rca_cable'
p2629
tp2630
asg9
(lp2631
S'orange_4'
p2632
asa(dp2633
g2
(lp2634
(g86
(lp2635
S'syringe'
p2636
aS'rca_cable'
p2637
atp2638
asg9
(lp2639
S'orange_4'
p2640
asa(dp2641
g2
(lp2642
(g86
(lp2643
S'syringe'
p2644
aS'rca_cable'
p2645
atp2646
asg9
(lp2647
S'orange_4'
p2648
asa(dp2649
g2
(lp2650
(g86
(lp2651
S'syringe'
p2652
aS'rca_cable'
p2653
atp2654
asg9
(lp2655
S'orange_4'
p2656
asa(dp2657
g2
(lp2658
(g25
S'rca_cable'
p2659
tp2660
asg9
(lp2661
S'orange_4'
p2662
asa(dp2663
g2
(lp2664
(g6
S'syringe'
p2665
tp2666
asg9
(lp2667
S'orange_5'
p2668
asa(dp2669
g2
(lp2670
(g179
S'syringe'
p2671
tp2672
asg9
(lp2673
S'orange_5'
p2674
asa(dp2675
g2
(lp2676
(g95
S'VIRTUAL_ME'
p2677
tp2678
a(S'REL'
p2679
(lp2680
S'on'
p2681
aS'the'
p2682
aS'left'
p2683
atp2684
asg9
(lp2685
S'orange_5'
p2686
asa(dp2687
g2
(lp2688
(g95
S'VIRTUAL_ME'
p2689
tp2690
a(g179
S'syringe'
p2691
tp2692
asg9
(lp2693
S'orange_5'
p2694
asa(dp2695
g2
(lp2696
(g86
(lp2697
S'syringe'
p2698
aS'calib_br'
p2699
atp2700
asg9
(lp2701
S'orange_5'
p2702
asa(dp2703
g2
(lp2704
(g179
S'syringe'
p2705
tp2706
asg9
(lp2707
S'orange_5'
p2708
asa(dp2709
g2
(lp2710
(g179
S'syringe'
p2711
tp2712
asg9
(lp2713
S'orange_5'
p2714
asa(dp2715
g2
(lp2716
(S'REL'
p2717
(lp2718
S'furthest'
p2719
aS'to'
p2720
aS'the'
p2721
aS'left'
p2722
atp2723
asg9
(lp2724
S'orange_6'
p2725
asa(dp2726
g2
(lp2727
(g95
S'pickle'
p2728
tp2729
asg9
(lp2730
S'orange_6'
p2731
asa(dp2732
g2
(lp2733
(g95
S'pickle'
p2734
tp2735
asg9
(lp2736
S'orange_6'
p2737
asa(dp2738
g2
(lp2739
(g179
S'pickle'
p2740
tp2741
asg9
(lp2742
S'orange_6'
p2743
asa(dp2744
g2
(lp2745
(g179
S'pickle'
p2746
tp2747
asg9
(lp2748
S'orange_6'
p2749
asa(dp2750
g2
(lp2751
(g179
S'pickle'
p2752
tp2753
asg9
(lp2754
S'orange_6'
p2755
asa(dp2756
g2
(lp2757
(g86
(lp2758
S'calib_br/calib_tr'
p2759
atp2760
asg9
(lp2761
S'orange_6'
p2762
asa(dp2763
g2
(lp2764
(S'REL'
p2765
(lp2766
S'furthest'
p2767
aS'to'
p2768
aS'your'
p2769
aS'left'
p2770
atp2771
asg9
(lp2772
S'orange_6'
p2773
asa(dp2774
g2
(lp2775
(g86
(lp2776
S'lemon'
p2777
aS'pickle'
p2778
atp2779
asg9
(lp2780
S'orange_1'
p2781
asa(dp2782
g2
(lp2783
(g95
S'lemon'
p2784
tp2785
a(NS'pickle'
p2786
tp2787
asg9
(lp2788
S'orange_1'
p2789
asa(dp2790
g2
(lp2791
(g86
(lp2792
S'pickle'
p2793
aS'lemon'
p2794
atp2795
asg9
(lp2796
S'orange_1'
p2797
asa(dp2798
g2
(lp2799
(g86
(lp2800
S'pickle'
p2801
aS'lemon'
p2802
atp2803
asg9
(lp2804
S'orange_1'
p2805
asa(dp2806
g2
(lp2807
(g86
(lp2808
S'lemon'
p2809
aS'pickle'
p2810
atp2811
asg9
(lp2812
S'orange_1'
p2813
asa(dp2814
g2
(lp2815
(g86
(lp2816
S'lemon'
p2817
aS'pickle'
p2818
atp2819
asg9
(lp2820
S'orange_1'
p2821
asa(dp2822
g2
(lp2823
(g25
S'pickle'
p2824
tp2825
a(g102
S'lemon'
p2826
tp2827
asg9
(lp2828
S'orange_1'
p2829
asa(dp2830
g2
(lp2831
(g25
S'pickle'
p2832
tp2833
asg9
(lp2834
S'orange_1'
p2835
asa(dp2836
g2
(lp2837
(g95
S'VIRTUAL_ME'
p2838
tp2839
asg9
(lp2840
S'orange_2'
p2841
asa(dp2842
g2
(lp2843
(g86
(lp2844
S'VIRTUAL_ME'
p2845
aS'lemon'
p2846
atp2847
asg9
(lp2848
S'orange_2'
p2849
asa(dp2850
g2
(lp2851
(S'REL'
p2852
(lp2853
S'closest'
p2854
aS'to'
p2855
aS'my'
p2856
aS'left'
p2857
atp2858
asg9
(lp2859
S'orange_2'
p2860
asa(dp2861
g2
(lp2862
(S'REL'
p2863
(lp2864
S'all'
p2865
aS'the'
p2866
aS'way'
p2867
aS'in'
p2868
aS'the'
p2869
aS'back'
p2870
aS'on'
p2871
aS'your'
p2872
aS'right'
p2873
atp2874
asg9
(lp2875
S'orange_2'
p2876
asa(dp2877
g2
(lp2878
(g25
g4
tp2879
a(g179
S'lemon'
p2880
tp2881
asg9
(lp2882
S'orange_2'
p2883
asa(dp2884
g2
(lp2885
(g102
S'VIRTUAL_YOU'
p2886
tp2887
asg9
(lp2888
S'orange_2'
p2889
asa(dp2890
g2
(lp2891
(S'REL'
p2892
(lp2893
S'furthest'
p2894
aS'to'
p2895
aS'the'
p2896
aS'right'
p2897
atp2898
a(g95
S'VIRTUAL_ME'
p2899
tp2900
asg9
(lp2901
S'orange_2'
p2902
asa(dp2903
g2
(lp2904
(g102
S'VIRTUAL_YOU'
p2905
tp2906
asg9
(lp2907
S'orange_3'
p2908
asa(dp2909
g2
(lp2910
(g86
(lp2911
S'pickle'
p2912
aS'toy_plane'
p2913
atp2914
asg9
(lp2915
S'orange_3'
p2916
asa(dp2917
g2
(lp2918
(g95
S'VIRTUAL_YOU'
p2919
tp2920
asg9
(lp2921
S'orange_3'
p2922
asa(dp2923
g2
(lp2924
(g95
S'VIRTUAL_YOU'
p2925
tp2926
asg9
(lp2927
S'orange_3'
p2928
asa(dp2929
g2
(lp2930
(g86
(lp2931
S'toy_plane'
p2932
aS'pickle'
p2933
atp2934
asg9
(lp2935
S'orange_3'
p2936
asa(dp2937
g2
(lp2938
(g95
S'VIRTUAL_YOU'
p2939
tp2940
asg9
(lp2941
S'orange_3'
p2942
asa(dp2943
g2
(lp2944
(g86
(lp2945
S'pickle'
p2946
aS'toy_plane'
p2947
atp2948
asg9
(lp2949
S'orange_3'
p2950
asa(dp2951
g2
(lp2952
(g95
S'VIRTUAL_YOU'
p2953
tp2954
asg9
(lp2955
S'orange_3'
p2956
asa(dp2957
g2
(lp2958
(g86
(lp2959
S'toy_plane'
p2960
aS'black_tape'
p2961
atp2962
asg9
(lp2963
S'orange_4'
p2964
asa(dp2965
g2
(lp2966
(g86
(lp2967
S'toy_plane'
p2968
aS'black_tape'
p2969
atp2970
asg9
(lp2971
S'orange_4'
p2972
asa(dp2973
g2
(lp2974
(g25
S'toy_plane'
p2975
tp2976
asg9
(lp2977
S'orange_4'
p2978
asa(dp2979
g2
(lp2980
(S'REL'
p2981
(lp2982
S'over'
p2983
aS'from'
p2984
aS'your'
p2985
aS'left'
p2986
atp2987
asg9
(lp2988
S'orange_4'
p2989
aS'orange_4'
p2990
asa(dp2991
g2
(lp2992
(g25
g399
tp2993
a(S'REL'
p2994
(lp2995
S'to'
p2996
aS'the'
p2997
aS'left'
p2998
atp2999
asg9
(lp3000
S'orange_4'
p3001
aS'orange_4'
p3002
asa(dp3003
g2
(lp3004
(g86
(lp3005
S'toy_plane'
p3006
aS'black_tape'
p3007
atp3008
asg9
(lp3009
S'orange_4'
p3010
asa(dp3011
g2
(lp3012
(g86
(lp3013
S'black_tape'
p3014
aS'syringe'
p3015
atp3016
asg9
(lp3017
S'orange_4'
p3018
asa(dp3019
g2
(lp3020
(g179
S'VIRTUAL_YOU'
p3021
tp3022
a(g25
S'black_tape'
p3023
tp3024
asg9
(lp3025
S'orange_5'
p3026
asa(dp3027
g2
(lp3028
(g95
S'VIRTUAL_ME'
p3029
tp3030
a(S'REL'
p3031
(lp3032
S'on'
p3033
aS'your'
p3034
aS'left'
p3035
aS'side'
p3036
atp3037
asg9
(lp3038
S'orange_5'
p3039
asa(dp3040
g2
(lp3041
(g95
S'VIRTUAL_ME'
p3042
tp3043
a(S'REL'
p3044
(lp3045
S'on'
p3046
aS'the'
p3047
aS'right'
p3048
atp3049
asg9
(lp3050
S'orange_5'
p3051
asa(dp3052
g2
(lp3053
(g102
S'orange_5'
p3054
tp3055
asg9
(lp3056
S'orange_5'
p3057
aS'black_tape'
p3058
asa(dp3059
g2
(lp3060
(g25
S'black_tape'
p3061
tp3062
asg9
(lp3063
S'orange_5'
p3064
asa(dp3065
g2
(lp3066
(g25
S'black_tape'
p3067
tp3068
asg9
(lp3069
S'orange_5'
p3070
asa(dp3071
g2
(lp3072
(g25
S'black_tape'
p3073
tp3074
asg9
(lp3075
S'orange_5'
p3076
asa(dp3077
g2
(lp3078
(g179
S'VIRTUAL_YOU'
p3079
tp3080
a(g95
S'rca_cable'
p3081
tp3082
asg9
(lp3083
S'orange_6'
p3084
asa(dp3085
g2
(lp3086
(S'REL'
p3087
(lp3088
S'on'
p3089
aS'the'
p3090
aS'left'
p3091
aS'hand'
p3092
aS'side'
p3093
atp3094
a(g86
(lp3095
S'black_tape'
p3096
aS'rca_cable'
p3097
atp3098
asg9
(lp3099
S'orange_6'
p3100
asa(dp3101
g2
(lp3102
(g86
(lp3103
S'calib_tr'
p3104
aS'rca_cable'
p3105
atp3106
asg9
(lp3107
S'orange_6'
p3108
asa(dp3109
g2
(lp3110
(g179
S'rca_cable'
p3111
tp3112
asg9
(lp3113
S'orange_6'
p3114
asa(dp3115
g2
(lp3116
(S'REL'
p3117
(lp3118
S'furthest'
p3119
aS'left'
p3120
atp3121
asg9
(lp3122
S'orange_6'
p3123
asa(dp3124
g2
(lp3125
(g179
S'black_tape'
p3126
tp3127
a(g179
S'rca_cable'
p3128
tp3129
asg9
(lp3130
S'orange_6'
p3131
asa(dp3132
g2
(lp3133
(S'REL'
p3134
(lp3135
S'furthest'
p3136
aS'on'
p3137
aS'your'
p3138
aS'left'
p3139
atp3140
asg9
(lp3141
S'orange_6'
p3142
asa(dp3143
g2
(lp3144
(S'REL'
p3145
(lp3146
S'furthest'
p3147
aS'to'
p3148
aS'the'
p3149
aS'left'
p3150
atp3151
asg9
(lp3152
S'orange_6'
p3153
asa(dp3154
g2
(lp3155
(S'REL'
p3156
(lp3157
S'the'
p3158
aS'right'
p3159
aS'most'
p3160
atp3161
asg9
(lp3162
S'orange_1'
p3163
asa(dp3164
g2
(lp3165
(g86
(lp3166
S'green_1'
p3167
aS'calib_tl'
p3168
atp3169
a(S'REL'
p3170
(lp3171
S'on'
p3172
aS'the'
p3173
aS'right'
p3174
atp3175
asg9
(lp3176
S'orange_1'
p3177
asa(dp3178
g2
(lp3179
(S'REL'
p3180
(lp3181
S'furthest'
p3182
aS'to'
p3183
aS'the'
p3184
aS'right'
p3185
atp3186
asg9
(lp3187
S'orange_1'
p3188
asa(dp3189
g2
(lp3190
(g86
(lp3191
S'green_1'
p3192
aS'calib_tl'
p3193
atp3194
asg9
(lp3195
S'orange_1'
p3196
asa(dp3197
g2
(lp3198
(g25
S'green_1'
p3199
tp3200
asg9
(lp3201
S'orange_1'
p3202
asa(dp3203
g2
(lp3204
(S'REL'
p3205
(lp3206
S'on'
p3207
aS'the'
p3208
aS'right'
p3209
aS'side'
p3210
atp3211
a(g86
(lp3212
S'calib_tl'
p3213
aS'red_1'
p3214
atp3215
asg9
(lp3216
S'orange_1'
p3217
asa(dp3218
g2
(lp3219
(S'REL'
p3220
(lp3221
S'furthest'
p3222
aS'on'
p3223
aS'your'
p3224
aS'right'
p3225
atp3226
asg9
(lp3227
S'orange_1'
p3228
asa(dp3229
g2
(lp3230
(g179
S'red_1'
p3231
tp3232
a(g179
S'green_1'
p3233
tp3234
asg9
(lp3235
S'orange_2'
p3236
asa(dp3237
g2
(lp3238
(g95
S'VIRTUAL_ME'
p3239
tp3240
asg9
(lp3241
S'orange_2'
p3242
asa(dp3243
g2
(lp3244
(S'REL'
p3245
(lp3246
S'from'
p3247
aS'your'
p3248
aS'right'
p3249
atp3250
asg9
(lp3251
S'orange_2'
p3252
asa(dp3253
g2
(lp3254
(g25
S'yellow_1'
p3255
tp3256
a(S'REL'
p3257
(lp3258
S'on'
p3259
aS'the'
p3260
aS'right'
p3261
atp3262
asg9
(lp3263
S'orange_2'
p3264
asa(dp3265
g2
(lp3266
(g95
S'VIRTUAL_ME'
p3267
tp3268
asg9
(lp3269
S'orange_2'
p3270
asa(dp3271
g2
(lp3272
(g86
(lp3273
S'red_1'
p3274
aS'blue_1'
p3275
atp3276
asg9
(lp3277
S'orange_2'
p3278
asa(dp3279
g2
(lp3280
(g95
S'VIRTUAL_ME'
p3281
tp3282
asg9
(lp3283
S'orange_2'
p3284
asa(dp3285
g2
(lp3286
(g102
S'VIRTUAL_YOU'
p3287
tp3288
a(g86
(lp3289
S'red_3/red_2'
p3290
atp3291
asg9
(lp3292
S'orange_3'
p3293
asa(dp3294
g2
(lp3295
(g95
S'VIRTUAL_YOU'
p3296
tp3297
asg9
(lp3298
S'orange_3'
p3299
asa(dp3300
g2
(lp3301
(g86
(lp3302
S'red_3/red_2'
p3303
atp3304
asg9
(lp3305
S'orange_3'
p3306
asa(dp3307
g2
(lp3308
(g95
S'VIRTUAL_YOU'
p3309
tp3310
a(S'REL'
p3311
(lp3312
S'right'
p3313
aS'in'
p3314
aS'the'
p3315
aS'middle'
p3316
atp3317
asg9
(lp3318
S'orange_3'
p3319
asa(dp3320
g2
(lp3321
(S'REL'
p3322
(lp3323
S'to'
p3324
aS'your'
p3325
aS'close'
p3326
aS'front'
p3327
aS'left'
p3328
atp3329
asg9
(lp3330
S'orange_3'
p3331
asa(dp3332
g2
(lp3333
(g102
S'VIRTUAL_YOU'
p3334
tp3335
a(g86
(lp3336
S'red_3/red_2'
p3337
atp3338
a(S'REL'
p3339
(lp3340
S'to'
p3341
aS'the'
p3342
aS'front'
p3343
aS'left'
p3344
atp3345
a(Ng399
tp3346
a(S'REL'
p3347
(lp3348
S'back'
p3349
aS'right'
p3350
atp3351
asg9
(lp3352
S'orange_3'
p3353
asa(dp3354
g2
(lp3355
(S'REL'
p3356
(lp3357
S'furthest'
p3358
aS'front'
p3359
atp3360
asg9
(lp3361
S'orange_3'
p3362
asa(dp3363
g2
(lp3364
(g95
S'VIRTUAL_YOU'
p3365
tp3366
asg9
(lp3367
S'orange_3'
p3368
asa(dp3369
g2
(lp3370
(g86
(lp3371
S'yellow_2'
p3372
aS'red_4'
p3373
atp3374
asg9
(lp3375
S'orange_4'
p3376
asa(dp3377
g2
(lp3378
(g86
(lp3379
S'yellow_2'
p3380
aS'red_4'
p3381
atp3382
a(S'REL'
p3383
(lp3384
S'on'
p3385
aS'the'
p3386
aS'left'
p3387
atp3388
asg9
(lp3389
S'orange_4'
p3390
asa(dp3391
g2
(lp3392
(S'REL'
p3393
(lp3394
S'furthest'
p3395
aS'to'
p3396
aS'the'
p3397
aS'left'
p3398
atp3399
a(g86
(lp3400
S'red_4'
p3401
aS'yellow_2'
p3402
atp3403
asg9
(lp3404
S'orange_4'
p3405
asa(dp3406
g2
(lp3407
(S'REL'
p3408
(lp3409
S'the'
p3410
aS'left'
p3411
aS'most'
p3412
atp3413
asg9
(lp3414
S'orange_4'
p3415
asa(dp3416
g2
(lp3417
(S'REL'
p3418
(lp3419
S'to'
p3420
aS'the'
p3421
aS'right'
p3422
atp3423
a(g102
S'yellow_2'
p3424
tp3425
asg9
(lp3426
S'orange_4'
p3427
asa(dp3428
g2
(lp3429
(S'REL'
p3430
(lp3431
S'to'
p3432
aS'your'
p3433
aS'far'
p3434
aS'left'
p3435
atp3436
asg9
(lp3437
S'orange_4'
p3438
asa(dp3439
g2
(lp3440
(S'REL'
p3441
(lp3442
S'furthest'
p3443
atp3444
a(S'REL'
p3445
(lp3446
S'to'
p3447
aS'the'
p3448
aS'left'
p3449
atp3450
asg9
(lp3451
S'orange_4'
p3452
asa(dp3453
g2
(lp3454
(g102
S'yellow_2'
p3455
tp3456
a(g25
S'red_4'
p3457
tp3458
asg9
(lp3459
S'orange_4'
p3460
asa(dp3461
g2
(lp3462
(g86
(lp3463
S'red_4'
p3464
aS'yellow_2'
p3465
atp3466
a(S'REL'
p3467
(lp3468
S'on'
p3469
aS'the'
p3470
aS'right'
p3471
atp3472
asg9
(lp3473
S'orange_4'
p3474
asa(dp3475
g2
(lp3476
(S'REL'
p3477
(lp3478
S'furthest'
p3479
aS'to'
p3480
aS'the'
p3481
aS'right'
p3482
atp3483
asg9
(lp3484
S'orange_1'
p3485
asa(dp3486
g2
(lp3487
(g102
S'vaseline'
p3488
tp3489
asg9
(lp3490
S'orange_1'
p3491
asa(dp3492
g2
(lp3493
(g6
S'VIRTUAL_YOU'
p3494
tp3495
a(g102
S'vaseline'
p3496
tp3497
asg9
(lp3498
S'orange_1'
p3499
asa(dp3500
g2
(lp3501
(S'REL'
p3502
(lp3503
S'on'
p3504
aS'the'
p3505
aS'far'
p3506
aS'right'
p3507
atp3508
asg9
(lp3509
S'orange_1'
p3510
asa(dp3511
g2
(lp3512
(g102
S'vaseline'
p3513
tp3514
asg9
(lp3515
S'orange_1'
p3516
asa(dp3517
g2
(lp3518
(g102
S'vaseline'
p3519
tp3520
asg9
(lp3521
S'orange_1'
p3522
asa(dp3523
g2
(lp3524
(g102
S'vaseline'
p3525
tp3526
asg9
(lp3527
S'orange_1'
p3528
asa(dp3529
g2
(lp3530
(g86
(lp3531
S'vaseline'
p3532
aS'wood_bowl'
p3533
atp3534
asg9
(lp3535
S'orange_2'
p3536
asa(dp3537
g2
(lp3538
(g179
S'vaseline'
p3539
tp3540
asg9
(lp3541
S'orange_2'
p3542
asa(dp3543
g2
(lp3544
(S'REL'
p3545
(lp3546
S'the'
p3547
aS'second'
p3548
aS'from'
p3549
aS'your'
p3550
aS'right'
p3551
atp3552
asg9
(lp3553
S'orange_2'
p3554
asa(dp3555
g2
(lp3556
(g86
(lp3557
S'wood_bowl'
p3558
aS'vaseline'
p3559
atp3560
asg9
(lp3561
S'orange_2'
p3562
asa(dp3563
g2
(lp3564
(g86
(lp3565
S'wood_bowl'
p3566
aS'vaseline'
p3567
atp3568
asg9
(lp3569
S'orange_2'
p3570
asa(dp3571
g2
(lp3572
(S'REL'
p3573
(lp3574
S'is'
p3575
aS'facing'
p3576
atp3577
a(g6
S'VIRTUAL_YOU'
p3578
tp3579
asg9
(lp3580
S'orange_2'
p3581
asa(dp3582
g2
(lp3583
(g179
S'vaseline'
p3584
tp3585
a(g6
S'wood_bowl'
p3586
tp3587
asg9
(lp3588
S'orange_2'
p3589
asa(dp3590
g2
(lp3591
(S'REL'
p3592
(lp3593
S'the'
p3594
aS'furthest'
p3595
atp3596
a(g86
(lp3597
S'vaseline'
p3598
aS'wood_bowl'
p3599
atp3600
asg9
(lp3601
S'orange_3'
p3602
asa(dp3603
g2
(lp3604
(g95
S'VIRTUAL_ME'
p3605
tp3606
asg9
(lp3607
S'orange_3'
p3608
asa(dp3609
g2
(lp3610
(g25
S'wood_bowl'
p3611
tp3612
asg9
(lp3613
S'orange_3'
p3614
asa(dp3615
g2
(lp3616
(g300
S'VIRTUAL_YOU'
p3617
tp3618
asg9
(lp3619
S'orange_3'
p3620
asa(dp3621
g2
(lp3622
(g95
S'VIRTUAL_ME'
p3623
tp3624
asg9
(lp3625
S'orange_3'
p3626
asa(dp3627
g2
(lp3628
(g95
S'VIRTUAL_ME'
p3629
tp3630
asg9
(lp3631
S'orange_3'
p3632
asa(dp3633
g2
(lp3634
(g300
S'VIRTUAL_YOU'
p3635
tp3636
asg9
(lp3637
S'orange_3'
p3638
asa(dp3639
g2
(lp3640
(g95
S'VIRTUAL_ME'
p3641
tp3642
asg9
(lp3643
S'orange_3'
p3644
asa(dp3645
g2
(lp3646
(g86
(lp3647
S'pickle'
p3648
aS'calib_tr'
p3649
atp3650
a(g95
S'VIRTUAL_YOU'
p3651
tp3652
asg9
(lp3653
S'orange_4'
p3654
asa(dp3655
g2
(lp3656
(g86
(lp3657
S'pickle'
p3658
aS'calib_tr'
p3659
atp3660
asg9
(lp3661
S'orange_4'
p3662
asa(dp3663
g2
(lp3664
(g6
S'pickle'
p3665
tp3666
asg9
(lp3667
S'orange_4'
p3668
asa(dp3669
g2
(lp3670
(g179
S'pickle'
p3671
tp3672
asg9
(lp3673
S'orange_4'
p3674
asa(dp3675
g2
(lp3676
(g95
S'VIRTUAL_YOU'
p3677
tp3678
asg9
(lp3679
S'orange_4'
p3680
asa(dp3681
g2
(lp3682
(g95
S'VIRTUAL_YOU'
p3683
tp3684
asg9
(lp3685
S'orange_4'
p3686
asa(dp3687
g2
(lp3688
(g95
S'VIRTUAL_YOU'
p3689
tp3690
asg9
(lp3691
S'orange_4'
p3692
asa(dp3693
g2
(lp3694
(g102
S'VIRTUAL_YOU'
p3695
tp3696
a(g86
(lp3697
S'pickle'
p3698
aS'calib_tr'
p3699
atp3700
asg9
(lp3701
S'orange_4'
p3702
asa(dp3703
g2
(lp3704
(S'REL'
p3705
(lp3706
S'on'
p3707
aS'the'
p3708
aS'far'
p3709
aS'right'
p3710
atp3711
asg9
(lp3712
S'orange_5'
p3713
asa(dp3714
g2
(lp3715
(g179
S'garlic_press'
p3716
tp3717
asg9
(lp3718
S'orange_5'
p3719
asa(dp3720
g2
(lp3721
(S'REL'
p3722
(lp3723
S'on'
p3724
aS'the'
p3725
aS'far'
p3726
aS'left'
p3727
atp3728
asg9
(lp3729
S'orange_5'
p3730
asa(dp3731
g2
(lp3732
(g179
S'garlic_press'
p3733
tp3734
asg9
(lp3735
S'orange_5'
p3736
asa(dp3737
g2
(lp3738
(g179
S'garlic_press'
p3739
tp3740
asg9
(lp3741
S'orange_5'
p3742
asa(dp3743
g2
(lp3744
(g179
S'garlic_press'
p3745
tp3746
asg9
(lp3747
S'orange_5'
p3748
asa(dp3749
g2
(lp3750
(g179
S'garlic_press'
p3751
tp3752
asg9
(lp3753
S'orange_5'
p3754
asa(dp3755
g2
(lp3756
(S'REL'
p3757
(lp3758
S'furthest'
p3759
aS'left'
p3760
atp3761
asg9
(lp3762
S'orange_5'
p3763
asa(dp3764
g2
(lp3765
(g6
S'garlic_press'
p3766
tp3767
asg9
(lp3768
S'orange_5'
p3769
asa(dp3770
g2
(lp3771
(g102
S'garlic_press'
p3772
tp3773
asg9
(lp3774
S'orange_1'
p3775
asa(dp3776
g2
(lp3777
(g102
S'garlic_press'
p3778
tp3779
asg9
(lp3780
S'orange_1'
p3781
asa(dp3782
g2
(lp3783
(S'REL'
p3784
(lp3785
S'on'
p3786
aS'the'
p3787
aS'far'
p3788
aS'right'
p3789
atp3790
asg9
(lp3791
S'orange_1'
p3792
asa(dp3793
g2
(lp3794
(g102
S'garlic_press'
p3795
tp3796
asg9
(lp3797
S'orange_1'
p3798
asa(dp3799
g2
(lp3800
(S'REL'
p3801
(lp3802
S'furthest'
p3803
aS'to'
p3804
aS'your'
p3805
aS'right'
p3806
atp3807
asg9
(lp3808
S'orange_1'
p3809
asa(dp3810
g2
(lp3811
(S'REL'
p3812
(lp3813
S'furthest'
p3814
aS'to'
p3815
aS'the'
p3816
aS'right'
p3817
atp3818
asg9
(lp3819
S'orange_1'
p3820
asa(dp3821
g2
(lp3822
(S'REL'
p3823
(lp3824
S'the'
p3825
aS'rightmost'
p3826
atp3827
a(g102
S'garlic_press'
p3828
tp3829
asg9
(lp3830
S'orange_1'
p3831
asa(dp3832
g2
(lp3833
(g6
S'VIRTUAL_YOU'
p3834
tp3835
asg9
(lp3836
S'orange_1'
p3837
asa(dp3838
g2
(lp3839
(g102
S'wood_bowl'
p3840
tp3841
asg9
(lp3842
S'orange_2'
p3843
asa(dp3844
g2
(lp3845
(g86
(lp3846
S'VIRTUAL_YOU'
p3847
aS'wood_bowl'
p3848
atp3849
asg9
(lp3850
S'orange_2'
p3851
asa(dp3852
g2
(lp3853
(g95
S'wood_bowl'
p3854
tp3855
asg9
(lp3856
S'orange_2'
p3857
asa(dp3858
g2
(lp3859
(g86
(lp3860
S'VIRTUAL_YOU'
p3861
aS'wood_bowl'
p3862
atp3863
asg9
(lp3864
S'orange_2'
p3865
asa(dp3866
g2
(lp3867
(g102
S'VIRTUAL_ME'
p3868
tp3869
asg9
(lp3870
S'orange_2'
p3871
asa(dp3872
g2
(lp3873
(g102
S'wood_bowl'
p3874
tp3875
asg9
(lp3876
S'orange_2'
p3877
asa(dp3878
g2
(lp3879
(g102
S'wood_bowl'
p3880
tp3881
asg9
(lp3882
S'orange_2'
p3883
asa(dp3884
g2
(lp3885
(g95
S'wood_bowl'
p3886
tp3887
asg9
(lp3888
S'orange_2'
p3889
asa(dp3890
g2
(lp3891
(g102
S'wood_bowl'
p3892
tp3893
asg9
(lp3894
S'orange_2'
p3895
asa(dp3896
g2
(lp3897
(g95
S'VIRTUAL_ME'
p3898
tp3899
asg9
(lp3900
S'orange_3'
p3901
asa(dp3902
g2
(lp3903
(g86
(lp3904
S'garlic_press'
p3905
aS'syringe'
p3906
atp3907
asg9
(lp3908
S'orange_3'
p3909
asa(dp3910
g2
(lp3911
(S'REL'
p3912
(lp3913
S'frontmost'
p3914
atp3915
a(g95
S'garlic_press'
p3916
tp3917
asg9
(lp3918
S'orange_3'
p3919
asa(dp3920
g2
(lp3921
(g95
S'VIRTUAL_ME'
p3922
tp3923
asg9
(lp3924
S'orange_3'
p3925
asa(dp3926
g2
(lp3927
(g95
S'VIRTUAL_ME'
p3928
tp3929
asg9
(lp3930
S'orange_3'
p3931
asa(dp3932
g2
(lp3933
(g25
S'wood_bowl'
p3934
tp3935
asg9
(lp3936
S'orange_3'
p3937
asa(dp3938
g2
(lp3939
(g86
(lp3940
S'garlic_press'
p3941
aS'syringe'
p3942
atp3943
asg9
(lp3944
S'orange_3'
p3945
asa(dp3946
g2
(lp3947
(g95
S'calib_tr'
p3948
tp3949
a(g95
S'VIRTUAL_YOU'
p3950
tp3951
asg9
(lp3952
S'orange_4'
p3953
asa(dp3954
g2
(lp3955
(g95
S'VIRTUAL_YOU'
p3956
tp3957
a(S'REL'
p3958
(lp3959
S'on'
p3960
aS'your'
p3961
aS'left'
p3962
atp3963
asg9
(lp3964
sa(dp3965
g2
(lp3966
(g102
S'vaseline'
p3967
tp3968
asg9
(lp3969
S'orange_4'
p3970
asa(dp3971
g2
(lp3972
(S'REL'
p3973
(lp3974
S'to'
p3975
aS'your'
p3976
aS'near'
p3977
aS'left'
p3978
atp3979
asg9
(lp3980
S'orange_4'
p3981
asa(dp3982
g2
(lp3983
(g179
S'wood_bowl'
p3984
tp3985
a(g95
S'calib_tr'
p3986
tp3987
asg9
(lp3988
S'orange_4'
p3989
asa(dp3990
g2
(lp3991
(g102
S'vaseline'
p3992
tp3993
asg9
(lp3994
S'orange_4'
p3995
asa(dp3996
g2
(lp3997
(g95
S'vaseline'
p3998
tp3999
a(g95
S'VIRTUAL_YOU'
p4000
tp4001
asg9
(lp4002
S'orange_4'
p4003
asa(dp4004
g2
(lp4005
(g25
S'vaseline'
p4006
tp4007
asg9
(lp4008
S'orange_5'
p4009
asa(dp4010
g2
(lp4011
(g25
S'vaseline'
p4012
tp4013
asg9
(lp4014
S'orange_5'
p4015
asa(dp4016
g2
(lp4017
(g86
(lp4018
S'vaseline'
p4019
aS'syringe'
p4020
atp4021
asg9
(lp4022
S'orange_5'
p4023
asa(dp4024
g2
(lp4025
(g86
(lp4026
S'syringe'
p4027
aS'vaseline'
p4028
atp4029
asg9
(lp4030
S'orange_5'
p4031
asa(dp4032
g2
(lp4033
(g86
(lp4034
S'syringe'
p4035
aS'vaseline'
p4036
atp4037
asg9
(lp4038
S'orange_5'
p4039
asa(dp4040
g2
(lp4041
(S'REL'
p4042
(lp4043
S'to'
p4044
aS'your'
p4045
aS'far'
p4046
aS'left'
p4047
atp4048
asg9
(lp4049
S'orange_5'
p4050
asa(dp4051
g2
(lp4052
(g25
S'vaseline'
p4053
tp4054
asg9
(lp4055
S'orange_5'
p4056
asa(dp4057
g2
(lp4058
(S'REL'
p4059
(lp4060
S'the'
p4061
aS'right'
p4062
aS'most'
p4063
atp4064
asg9
(lp4065
S'orange_1'
p4066
asa(dp4067
g2
(lp4068
(S'REL'
p4069
(lp4070
S'on'
p4071
aS'the'
p4072
aS'far'
p4073
aS'right'
p4074
atp4075
asg9
(lp4076
S'orange_1'
p4077
asa(dp4078
g2
(lp4079
(S'REL'
p4080
(lp4081
S'to'
p4082
aS'the'
p4083
aS'far'
p4084
aS'left'
p4085
atp4086
asg9
(lp4087
S'orange_1'
p4088
asa(dp4089
g2
(lp4090
(g6
S'pickle'
p4091
tp4092
asg9
(lp4093
S'orange_1'
p4094
asa(dp4095
g2
(lp4096
(S'REL'
p4097
(lp4098
S'furthest'
p4099
aS'to'
p4100
aS'the'
p4101
aS'right'
p4102
atp4103
asg9
(lp4104
S'orange_1'
p4105
asa(dp4106
g2
(lp4107
(g6
S'pickle'
p4108
tp4109
asg9
(lp4110
S'orange_1'
p4111
asa(dp4112
g2
(lp4113
(S'REL'
p4114
(lp4115
S'furthest'
p4116
aS'to'
p4117
aS'the'
p4118
aS'right'
p4119
atp4120
asg9
(lp4121
S'orange_1'
p4122
asa(dp4123
g2
(lp4124
(S'REL'
p4125
(lp4126
S'on'
p4127
aS'the'
p4128
aS"robot's"
p4129
aS'far'
p4130
aS'right'
p4131
atp4132
asg9
(lp4133
S'orange_1'
p4134
asa(dp4135
g2
(lp4136
(g95
S'VIRTUAL_YOU'
p4137
tp4138
asg9
(lp4139
S'orange_2'
p4140
asa(dp4141
g2
(lp4142
(g86
(lp4143
S'calib_tl/orange_2/calib_tr'
p4144
atp4145
asg9
(lp4146
S'orange_2'
p4147
asa(dp4148
g2
(lp4149
(S'REL'
p4150
(lp4151
S'the'
p4152
aS'closest'
p4153
atp4154
a(g102
S'VIRTUAL_YOU'
p4155
tp4156
asg9
(lp4157
S'orange_2'
p4158
asa(dp4159
g2
(lp4160
(S'REL'
p4161
(lp4162
S'the'
p4163
aS'closest'
p4164
atp4165
asg9
(lp4166
S'orange_2'
p4167
asa(dp4168
g2
(lp4169
(g86
(lp4170
S'calib_tl/calib_tr'
p4171
atp4172
a(g95
S'VIRTUAL_YOU'
p4173
tp4174
asg9
(lp4175
S'orange_2'
p4176
asa(dp4177
g2
(lp4178
(g102
S'VIRTUAL_YOU'
p4179
tp4180
asg9
(lp4181
S'orange_2'
p4182
asa(dp4183
g2
(lp4184
(g95
S'VIRTUAL_YOU'
p4185
tp4186
asg9
(lp4187
S'orange_2'
p4188
asa(dp4189
g2
(lp4190
(g95
S'VIRTUAL_YOU'
p4191
tp4192
asg9
(lp4193
S'orange_2'
p4194
asa(dp4195
g2
(lp4196
(g95
S'VIRTUAL_YOU'
p4197
tp4198
asg9
(lp4199
S'orange_2'
p4200
asa(dp4201
g2
(lp4202
(g179
S'wood_bowl'
p4203
tp4204
asg9
(lp4205
S'orange_3'
p4206
asa(dp4207
g2
(lp4208
(g86
(lp4209
S'pickle'
p4210
aS'wood_bowl'
p4211
atp4212
asg9
(lp4213
S'orange_3'
p4214
asa(dp4215
g2
(lp4216
(g6
S'wood_bowl'
p4217
tp4218
asg9
(lp4219
S'orange_3'
p4220
asa(dp4221
g2
(lp4222
(S'REL'
p4223
(lp4224
S'to'
p4225
aS'the'
p4226
aS'right'
p4227
atp4228
a(g102
S'wood_bowl'
p4229
tp4230
asg9
(lp4231
S'orange_3'
p4232
asa(dp4233
g2
(lp4234
(g86
(lp4235
S'pickle'
p4236
aS'wood_bowl'
p4237
atp4238
asg9
(lp4239
S'orange_3'
p4240
asa(dp4241
g2
(lp4242
(g86
(lp4243
S'wood_bowl'
p4244
aS'pickle'
p4245
atp4246
asg9
(lp4247
S'orange_3'
p4248
asa(dp4249
g2
(lp4250
(g86
(lp4251
S'pickle'
p4252
aS'wood_bowl'
p4253
atp4254
asg9
(lp4255
S'orange_3'
p4256
asa(dp4257
g2
(lp4258
(g6
S'wood_bowl'
p4259
tp4260
asg9
(lp4261
S'orange_3'
p4262
asa(dp4263
g2
(lp4264
(S'REL'
p4265
(lp4266
S'on'
p4267
aS'the'
p4268
aS'far'
p4269
aS'left'
p4270
atp4271
a(g95
S'wood_bowl'
p4272
tp4273
asg9
(lp4274
S'orange_4'
p4275
asa(dp4276
g2
(lp4277
(g179
S'wood_bowl'
p4278
tp4279
asg9
(lp4280
S'orange_4'
p4281
asa(dp4282
g2
(lp4283
(S'REL'
p4284
(lp4285
S'on'
p4286
aS'the'
p4287
aS'left'
p4288
aS'of'
p4289
atp4290
asg9
(lp4291
S'orange_4'
p4292
aS'orange_4'
p4293
asa(dp4294
g2
(lp4295
(S'REL'
p4296
(lp4297
S'furthest'
p4298
aS'to'
p4299
aS'the'
p4300
aS'left'
p4301
atp4302
a(g95
S'VIRTUAL_YOU'
p4303
tp4304
asg9
(lp4305
S'orange_4'
p4306
asa(dp4307
g2
(lp4308
(S'REL'
p4309
(lp4310
S'furthest'
p4311
aS'on'
p4312
aS'your'
p4313
aS'left'
p4314
atp4315
asg9
(lp4316
S'orange_4'
p4317
asa(dp4318
g2
(lp4319
(g86
(lp4320
S'vaseline'
p4321
aS'calib_tr'
p4322
atp4323
a(g95
S'VIRTUAL_YOU'
p4324
tp4325
asg9
(lp4326
S'orange_4'
p4327
asa(dp4328
g2
(lp4329
(S'REL'
p4330
(lp4331
S'your'
p4332
aS'left'
p4333
atp4334
a(NS'calib_tr'
p4335
tp4336
asg9
(lp4337
sa(dp4338
g2
(lp4339
(g102
S'calib_br'
p4340
tp4341
a(g95
S'VIRTUAL_ME'
p4342
tp4343
asg9
(lp4344
S'orange_5'
p4345
asa(dp4346
g2
(lp4347
(g95
S'VIRTUAL_ME'
p4348
tp4349
asg9
(lp4350
S'orange_5'
p4351
asa(dp4352
g2
(lp4353
(g86
(lp4354
S'wood_bowl'
p4355
aS'calib_br'
p4356
atp4357
asg9
(lp4358
S'orange_5'
p4359
asa(dp4360
g2
(lp4361
(g6
g4
tp4362
a(g102
S'vaseline'
p4363
tp4364
asg9
(lp4365
S'orange_5'
p4366
asa(dp4367
g2
(lp4368
(g25
S'wood_bowl'
p4369
tp4370
a(g95
S'calib_br'
p4371
tp4372
asg9
(lp4373
S'orange_5'
p4374
asa(dp4375
g2
(lp4376
(g300
S'VIRTUAL_YOU'
p4377
tp4378
asg9
(lp4379
S'orange_5'
p4380
asa(dp4381
g2
(lp4382
(g95
S'VIRTUAL_ME'
p4383
tp4384
asg9
(lp4385
S'orange_5'
p4386
asa(dp4387
g2
(lp4388
(g300
S'VIRTUAL_YOU'
p4389
tp4390
asg9
(lp4391
S'orange_5'
p4392
asa(dp4393
g2
(lp4394
(S'REL'
p4395
(lp4396
S'on'
p4397
aS'the'
p4398
aS'right'
p4399
atp4400
a(g86
(lp4401
S'black_bottle'
p4402
aS'pickle'
p4403
atp4404
asg9
(lp4405
S'orange_1'
p4406
asa(dp4407
g2
(lp4408
(S'REL'
p4409
(lp4410
S'furthest'
p4411
aS'to'
p4412
aS'the'
p4413
aS'right'
p4414
atp4415
asg9
(lp4416
S'orange_1'
p4417
asa(dp4418
g2
(lp4419
(g25
S'pickle'
p4420
tp4421
asg9
(lp4422
S'orange_1'
p4423
asa(dp4424
g2
(lp4425
(g6
S'black_bottle'
p4426
tp4427
asg9
(lp4428
S'orange_1'
p4429
asa(dp4430
g2
(lp4431
(S'REL'
p4432
(lp4433
S'furthest'
p4434
aS'to'
p4435
aS'the'
p4436
aS'right'
p4437
atp4438
asg9
(lp4439
S'orange_1'
p4440
asa(dp4441
g2
(lp4442
(g6
S'pickle'
p4443
tp4444
asg9
(lp4445
S'orange_1'
p4446
asa(dp4447
g2
(lp4448
(S'REL'
p4449
(lp4450
S'to'
p4451
aS'your'
p4452
aS'far'
p4453
aS'right'
p4454
atp4455
asg9
(lp4456
S'orange_1'
p4457
asa(dp4458
g2
(lp4459
(g95
S'VIRTUAL_ME'
p4460
tp4461
asg9
(lp4462
S'orange_2'
p4463
asa(dp4464
g2
(lp4465
(g95
S'VIRTUAL_ME'
p4466
tp4467
asg9
(lp4468
S'orange_2'
p4469
asa(dp4470
g2
(lp4471
(g95
S'VIRTUAL_ME'
p4472
tp4473
asg9
(lp4474
S'orange_2'
p4475
asa(dp4476
g2
(lp4477
(g6
S'toy_plane'
p4478
tp4479
asg9
(lp4480
S'orange_2'
p4481
asa(dp4482
g2
(lp4483
(g179
S'toy_plane'
p4484
tp4485
asg9
(lp4486
S'orange_2'
p4487
asa(dp4488
g2
(lp4489
(g6
S'toy_plane'
p4490
tp4491
asg9
(lp4492
S'orange_2'
p4493
asa(dp4494
g2
(lp4495
(g86
(lp4496
S'toy_plane'
p4497
aS'black_bottle'
p4498
atp4499
asg9
(lp4500
S'orange_2'
p4501
asa(dp4502
g2
(lp4503
(g6
S'syringe'
p4504
tp4505
asg9
(lp4506
S'orange_3'
p4507
asa(dp4508
g2
(lp4509
(g86
(lp4510
S'syringe'
p4511
aS'black_bottle'
p4512
atp4513
asg9
(lp4514
S'orange_3'
p4515
asa(dp4516
g2
(lp4517
(g86
(lp4518
S'pickle'
p4519
aS'syringe'
p4520
atp4521
asg9
(lp4522
S'orange_3'
p4523
asa(dp4524
g2
(lp4525
(g6
S'syringe'
p4526
tp4527
asg9
(lp4528
S'orange_3'
p4529
asa(dp4530
g2
(lp4531
(g86
(lp4532
S'pickle'
p4533
aS'syringe'
p4534
atp4535
asg9
(lp4536
S'orange_3'
p4537
asa(dp4538
g2
(lp4539
(g86
(lp4540
S'syringe'
p4541
aS'pickle'
p4542
atp4543
asg9
(lp4544
S'orange_3'
p4545
asa(dp4546
g2
(lp4547
(g179
S'pickle'
p4548
tp4549
asg9
(lp4550
S'orange_3'
p4551
asa(dp4552
g2
(lp4553
(NS'toy_plane'
p4554
tp4555
asg9
(lp4556
S'orange_3'
p4557
asa(dp4558
g2
(lp4559
(g6
S'syringe'
p4560
tp4561
asg9
(lp4562
S'orange_3'
p4563
asa(dp4564
g2
(lp4565
(S'REL'
p4566
(lp4567
S'the'
p4568
aS'closest'
p4569
atp4570
asg9
(lp4571
S'orange_4'
p4572
asa(dp4573
g2
(lp4574
(g95
S'VIRTUAL_YOU'
p4575
tp4576
a(g95
S'syringe'
p4577
tp4578
asg9
(lp4579
S'orange_4'
p4580
asa(dp4581
g2
(lp4582
(g102
S'VIRTUAL_YOU'
p4583
tp4584
asg9
(lp4585
S'orange_4'
p4586
asa(dp4587
g2
(lp4588
(g102
S'syringe'
p4589
tp4590
asg9
(lp4591
S'orange_4'
p4592
asa(dp4593
g2
(lp4594
(g300
S'VIRTUAL_YOU'
p4595
tp4596
asg9
(lp4597
S'orange_4'
p4598
asa(dp4599
g2
(lp4600
(g102
S'syringe'
p4601
tp4602
asg9
(lp4603
S'orange_4'
p4604
asa(dp4605
g2
(lp4606
(g95
S'VIRTUAL_YOU'
p4607
tp4608
asg9
(lp4609
S'orange_4'
p4610
asa(dp4611
g2
(lp4612
(g102
S'VIRTUAL_YOU'
p4613
tp4614
asg9
(lp4615
S'orange_4'
p4616
asa(dp4617
g2
(lp4618
(g95
S'VIRTUAL_YOU'
p4619
tp4620
asg9
(lp4621
S'orange_4'
p4622
asa(dp4623
g2
(lp4624
(g86
(lp4625
S'calib_br/calib_tr'
p4626
atp4627
asg9
(lp4628
S'orange_5'
p4629
asa(dp4630
g2
(lp4631
(S'REL'
p4632
(lp4633
S'on'
p4634
aS'the'
p4635
aS'far'
p4636
aS'left'
p4637
atp4638
asg9
(lp4639
S'orange_5'
p4640
asa(dp4641
g2
(lp4642
(g86
(lp4643
S'toy_plane'
p4644
aS'calib_tr'
p4645
atp4646
asg9
(lp4647
S'orange_5'
p4648
asa(dp4649
g2
(lp4650
(S'REL'
p4651
(lp4652
S'to'
p4653
aS'your'
p4654
aS'left'
p4655
atp4656
a(g86
(lp4657
S'calib_br/calib_tr'
p4658
atp4659
asg9
(lp4660
S'orange_5'
p4661
asa(dp4662
g2
(lp4663
(g25
S'calib_tr'
p4664
tp4665
a(g95
S'VIRTUAL_YOU'
p4666
tp4667
asg9
(lp4668
S'orange_5'
p4669
asa(dp4670
g2
(lp4671
(g179
S'toy_plane'
p4672
tp4673
asg9
(lp4674
S'orange_5'
p4675
asa(dp4676
g2
(lp4677
(S'REL'
p4678
(lp4679
S'on'
p4680
aS'the'
p4681
aS'left'
p4682
aS'side'
p4683
atp4684
asg9
(lp4685
S'orange_5'
p4686
asa(dp4687
g2
(lp4688
(S'REL'
p4689
(lp4690
S'on'
p4691
aS'the'
p4692
aS'right'
p4693
atp4694
a(g86
(lp4695
S'pickle'
p4696
aS'calib_tl'
p4697
atp4698
asg9
(lp4699
S'orange_1'
p4700
asa(dp4701
g2
(lp4702
(g102
S'pickle'
p4703
tp4704
asg9
(lp4705
S'orange_1'
p4706
asa(dp4707
g2
(lp4708
(S'REL'
p4709
(lp4710
S'furthest'
p4711
aS'to'
p4712
aS'the'
p4713
aS'right'
p4714
atp4715
a(g95
S'VIRTUAL_YOU'
p4716
tp4717
asg9
(lp4718
S'orange_1'
p4719
asa(dp4720
g2
(lp4721
(S'REL'
p4722
(lp4723
S'on'
p4724
aS'the'
p4725
aS'right'
p4726
atp4727
a(g86
(lp4728
S'VIRTUAL_YOU'
p4729
aS'pickle'
p4730
atp4731
asg9
(lp4732
S'orange_1'
p4733
asa(dp4734
g2
(lp4735
(S'REL'
p4736
(lp4737
S'on'
p4738
aS'the'
p4739
aS'right'
p4740
atp4741
asg9
(lp4742
S'orange_1'
p4743
asa(dp4744
g2
(lp4745
(g86
(lp4746
S'pickle'
p4747
aS'calib_tl'
p4748
atp4749
asg9
(lp4750
S'orange_1'
p4751
asa(dp4752
g2
(lp4753
(g86
(lp4754
S'calib_tl'
p4755
aS'pickle'
p4756
atp4757
a(S'REL'
p4758
(lp4759
S'on'
p4760
aS'the'
p4761
aS'right'
p4762
atp4763
asg9
(lp4764
S'orange_1'
p4765
asa(dp4766
g2
(lp4767
(g95
S'VIRTUAL_ME'
p4768
tp4769
a(NS'pickle'
p4770
tp4771
asg9
(lp4772
S'orange_2'
p4773
asa(dp4774
g2
(lp4775
(g25
S'pickle'
p4776
tp4777
asg9
(lp4778
S'orange_2'
p4779
asa(dp4780
g2
(lp4781
(g102
S'syringe'
p4782
tp4783
asg9
(lp4784
S'orange_2'
p4785
asa(dp4786
g2
(lp4787
(S'REL'
p4788
(lp4789
S'on'
p4790
aS'the'
p4791
aS'bottom'
p4792
aS'right'
p4793
atp4794
a(g86
(lp4795
S'pickle'
p4796
aS'black_bottle'
p4797
atp4798
asg9
(lp4799
sa(dp4800
g2
(lp4801
(g86
(lp4802
S'VIRTUAL_ME'
p4803
aS'pickle'
p4804
atp4805
asg9
(lp4806
S'orange_2'
p4807
asa(dp4808
g2
(lp4809
(NS'pickle'
p4810
tp4811
asg9
(lp4812
S'orange_2'
p4813
asa(dp4814
g2
(lp4815
(g25
S'pickle'
p4816
tp4817
asg9
(lp4818
S'orange_2'
p4819
asa(dp4820
g2
(lp4821
(g95
S'VIRTUAL_YOU'
p4822
tp4823
asg9
(lp4824
S'orange_3'
p4825
asa(dp4826
g2
(lp4827
(g102
S'syringe'
p4828
tp4829
asg9
(lp4830
S'orange_3'
p4831
asa(dp4832
g2
(lp4833
(g86
(lp4834
S'toy_plane'
p4835
aS'syringe'
p4836
atp4837
asg9
(lp4838
S'orange_3'
p4839
asa(dp4840
g2
(lp4841
(g86
(lp4842
S'toy_plane'
p4843
aS'syringe'
p4844
atp4845
asg9
(lp4846
S'orange_3'
p4847
asa(dp4848
g2
(lp4849
(g102
S'syringe'
p4850
tp4851
asg9
(lp4852
S'orange_3'
p4853
asa(dp4854
g2
(lp4855
(S'REL'
p4856
(lp4857
S'to'
p4858
aS'your'
p4859
aS'close'
p4860
aS'front'
p4861
atp4862
asg9
(lp4863
S'orange_3'
p4864
asa(dp4865
g2
(lp4866
(g86
(lp4867
S'toy_plane'
p4868
aS'syringe'
p4869
atp4870
asg9
(lp4871
S'orange_3'
p4872
asa(dp4873
g2
(lp4874
(g95
S'VIRTUAL_ME'
p4875
tp4876
asg9
(lp4877
S'orange_4'
p4878
asa(dp4879
g2
(lp4880
(g25
g4
tp4881
a(g179
S'black_bottle'
p4882
tp4883
asg9
(lp4884
S'orange_4'
p4885
asa(dp4886
g2
(lp4887
(g95
S'VIRTUAL_ME'
p4888
tp4889
asg9
(lp4890
S'orange_4'
p4891
asa(dp4892
g2
(lp4893
(S'REL'
p4894
(lp4895
S'that'
p4896
aS'has'
p4897
aS'the'
p4898
aS'brown'
p4899
aS'medicine'
p4900
aS'bottle'
p4901
aS'on'
p4902
aS'its'
p4903
aS'left'
p4904
atp4905
asg9
(lp4906
S'orange_4'
p4907
asa(dp4908
g2
(lp4909
(g25
S'syringe'
p4910
tp4911
asg9
(lp4912
S'orange_4'
p4913
asa(dp4914
g2
(lp4915
(g25
S'syringe'
p4916
tp4917
asg9
(lp4918
S'orange_4'
p4919
asa(dp4920
g2
(lp4921
(g25
S'syringe'
p4922
tp4923
asg9
(lp4924
S'orange_4'
p4925
asa(dp4926
g2
(lp4927
(g86
(lp4928
S'black_bottle'
p4929
aS'calib_br'
p4930
atp4931
asg9
(lp4932
S'orange_4'
p4933
asa(dp4934
g2
(lp4935
(g179
S'syringe'
p4936
tp4937
asg9
(lp4938
S'orange_5'
p4939
asa(dp4940
g2
(lp4941
(S'REL'
p4942
(lp4943
S'furthest'
p4944
aS'on'
p4945
aS'your'
p4946
aS'left'
p4947
atp4948
asg9
(lp4949
S'orange_5'
p4950
asa(dp4951
g2
(lp4952
(S'REL'
p4953
(lp4954
S'furthest'
p4955
aS'to'
p4956
aS'the'
p4957
aS'left'
p4958
atp4959
a(g95
S'syringe'
p4960
tp4961
a(g86
(lp4962
S'calib_tr/calib_br'
p4963
atp4964
asg9
(lp4965
S'orange_5'
p4966
asa(dp4967
g2
(lp4968
(g179
S'syringe'
p4969
tp4970
asg9
(lp4971
S'orange_5'
p4972
asa(dp4973
g2
(lp4974
(S'REL'
p4975
(lp4976
S'furthest'
p4977
aS'to'
p4978
aS'the'
p4979
aS'left'
p4980
atp4981
asg9
(lp4982
S'orange_5'
p4983
asa(dp4984
g2
(lp4985
(g86
(lp4986
S'calib_br/calib_tr'
p4987
atp4988
a(S'REL'
p4989
(lp4990
S'on'
p4991
aS'your'
p4992
aS'left'
p4993
atp4994
asg9
(lp4995
S'orange_5'
p4996
asa(dp4997
g2
(lp4998
(S'REL'
p4999
(lp5000
S'furthest'
p5001
aS'to'
p5002
aS'the'
p5003
aS'left'
p5004
atp5005
asg9
(lp5006
S'orange_5'
p5007
asa(dp5008
g2
(lp5009
(g179
S'syringe'
p5010
tp5011
asg9
(lp5012
S'orange_5'
p5013
asa(dp5014
g2
(lp5015
(g6
S'vaseline'
p5016
tp5017
asg9
(lp5018
S'orange_1'
p5019
asa(dp5020
g2
(lp5021
(S'REL'
p5022
(lp5023
S'on'
p5024
aS'the'
p5025
aS'far'
p5026
aS'right'
p5027
atp5028
asg9
(lp5029
S'orange_1'
p5030
asa(dp5031
g2
(lp5032
(S'REL'
p5033
(lp5034
S'furthest'
p5035
aS'to'
p5036
aS'the'
p5037
aS'right'
p5038
atp5039
asg9
(lp5040
S'orange_1'
p5041
asa(dp5042
g2
(lp5043
(S'REL'
p5044
(lp5045
S'the'
p5046
aS'furthest'
p5047
aS'to'
p5048
aS'your'
p5049
aS'right'
p5050
atp5051
a(g86
(lp5052
S'black_bottle'
p5053
aS'calib_tl'
p5054
atp5055
asg9
(lp5056
S'orange_1'
p5057
asa(dp5058
g2
(lp5059
(g86
(lp5060
S'black_bottle'
p5061
aS'calib_tl'
p5062
atp5063
a(S'REL'
p5064
(lp5065
S'to'
p5066
aS'the'
p5067
aS'right'
p5068
atp5069
asg9
(lp5070
S'orange_1'
p5071
asa(dp5072
g2
(lp5073
(g102
S'black_bottle'
p5074
tp5075
asg9
(lp5076
S'orange_1'
p5077
asa(dp5078
g2
(lp5079
(g102
S'black_bottle'
p5080
tp5081
asg9
(lp5082
S'orange_1'
p5083
asa(dp5084
g2
(lp5085
(S'REL'
p5086
(lp5087
S'on'
p5088
aS'the'
p5089
aS'far'
p5090
aS'right'
p5091
aS'of'
p5092
atp5093
a(g25
g4
tp5094
a(g6
S'syringe'
p5095
tp5096
asg9
(lp5097
S'orange_1'
p5098
aS'orange_1'
p5099
asa(dp5100
g2
(lp5101
(g95
S'VIRTUAL_YOU'
p5102
tp5103
asg9
(lp5104
S'orange_2'
p5105
asa(dp5106
g2
(lp5107
(g95
S'VIRTUAL_YOU'
p5108
tp5109
asg9
(lp5110
S'orange_2'
p5111
asa(dp5112
g2
(lp5113
(S'REL'
p5114
(lp5115
S'in'
p5116
aS'front'
p5117
atp5118
a(g25
S'vaseline'
p5119
tp5120
asg9
(lp5121
sa(dp5122
g2
(lp5123
(g102
S'vaseline'
p5124
tp5125
asg9
(lp5126
S'orange_2'
p5127
asa(dp5128
g2
(lp5129
(g102
S'vaseline'
p5130
tp5131
asg9
(lp5132
S'orange_2'
p5133
asa(dp5134
g2
(lp5135
(g95
S'VIRTUAL_YOU'
p5136
tp5137
asg9
(lp5138
S'orange_2'
p5139
asa(dp5140
g2
(lp5141
(g95
S'VIRTUAL_ME'
p5142
tp5143
asg9
(lp5144
S'orange_3'
p5145
asa(dp5146
g2
(lp5147
(g95
S'VIRTUAL_ME'
p5148
tp5149
asg9
(lp5150
S'orange_3'
p5151
asa(dp5152
g2
(lp5153
(g95
S'VIRTUAL_ME'
p5154
tp5155
asg9
(lp5156
S'orange_3'
p5157
asa(dp5158
g2
(lp5159
(g95
S'VIRTUAL_ME'
p5160
tp5161
asg9
(lp5162
S'orange_3'
p5163
asa(dp5164
g2
(lp5165
(g25
S'vaseline'
p5166
tp5167
asg9
(lp5168
S'orange_3'
p5169
asa(dp5170
g2
(lp5171
(g300
S'VIRTUAL_YOU'
p5172
tp5173
a(g25
S'vaseline'
p5174
tp5175
asg9
(lp5176
S'orange_3'
p5177
asa(dp5178
g2
(lp5179
(g300
S'VIRTUAL_YOU'
p5180
tp5181
asg9
(lp5182
S'orange_3'
p5183
asa(dp5184
g2
(lp5185
(g25
S'vaseline'
p5186
tp5187
asg9
(lp5188
S'orange_3'
p5189
asa(dp5190
g2
(lp5191
(g86
(lp5192
S'pickle'
p5193
aS'vaseline'
p5194
atp5195
asg9
(lp5196
S'orange_4'
p5197
asa(dp5198
g2
(lp5199
(g6
S'pickle'
p5200
tp5201
asg9
(lp5202
S'orange_4'
p5203
asa(dp5204
g2
(lp5205
(g86
(lp5206
S'vaseline'
p5207
aS'pickle'
p5208
atp5209
asg9
(lp5210
S'orange_4'
p5211
asa(dp5212
g2
(lp5213
(g86
(lp5214
S'vaseline'
p5215
aS'pickle'
p5216
atp5217
asg9
(lp5218
S'orange_4'
p5219
asa(dp5220
g2
(lp5221
(g86
(lp5222
S'vaseline'
p5223
aS'pickle'
p5224
atp5225
asg9
(lp5226
S'orange_4'
p5227
asa(dp5228
g2
(lp5229
(g86
(lp5230
S'vaseline'
p5231
aS'pickle'
p5232
atp5233
asg9
(lp5234
S'orange_4'
p5235
asa(dp5236
g2
(lp5237
(g86
(lp5238
S'vaseline'
p5239
aS'pickle'
p5240
atp5241
asg9
(lp5242
S'orange_4'
p5243
asa(dp5244
g2
(lp5245
(S'REL'
p5246
(lp5247
S'to'
p5248
aS'your'
p5249
aS'very'
p5250
aS'left'
p5251
atp5252
asg9
(lp5253
S'orange_5'
p5254
asa(dp5255
g2
(lp5256
(g86
(lp5257
S'wood_bowl'
p5258
aS'calib_tr'
p5259
atp5260
asg9
(lp5261
S'orange_5'
p5262
asa(dp5263
g2
(lp5264
(g179
S'pickle'
p5265
tp5266
asg9
(lp5267
S'orange_5'
p5268
asa(dp5269
g2
(lp5270
(g179
S'pickle'
p5271
tp5272
asg9
(lp5273
S'orange_5'
p5274
asa(dp5275
g2
(lp5276
(g179
S'pickle'
p5277
tp5278
asg9
(lp5279
S'orange_5'
p5280
asa(dp5281
g2
(lp5282
(S'REL'
p5283
(lp5284
S'on'
p5285
aS'the'
p5286
aS'outside'
p5287
atp5288
a(S'REL'
p5289
(lp5290
S'has'
p5291
atp5292
a(S'REL'
p5293
(lp5294
S'to'
p5295
aS'its'
p5296
aS'left'
p5297
atp5298
asg9
(lp5299
S'orange_5'
p5300
aS'orange_5'
p5301
asa(dp5302
g2
(lp5303
(S'REL'
p5304
(lp5305
S'the'
p5306
aS'furthest'
p5307
aS'to'
p5308
aS'the'
p5309
aS'left'
p5310
atp5311
asg9
(lp5312
S'orange_5'
p5313
asa(dp5314
g2
(lp5315
(S'REL'
p5316
(lp5317
S'the'
p5318
aS'furthest'
p5319
aS'left'
p5320
atp5321
a(g86
(lp5322
S'wood_bowl'
p5323
atp5324
asg9
(lp5325
S'orange_5'
p5326
asa(dp5327
g2
(lp5328
(S'REL'
p5329
(lp5330
S'on'
p5331
aS'the'
p5332
aS'far'
p5333
aS'right'
p5334
atp5335
a(g86
(lp5336
S'syringe'
p5337
aS'vaseline'
p5338
atp5339
asg9
(lp5340
S'orange_1'
p5341
asa(dp5342
g2
(lp5343
(g102
S'syringe'
p5344
tp5345
asg9
(lp5346
S'orange_1'
p5347
asa(dp5348
g2
(lp5349
(g102
S'syringe'
p5350
tp5351
asg9
(lp5352
S'orange_1'
p5353
asa(dp5354
g2
(lp5355
(g86
(lp5356
S'vaseline'
p5357
aS'syringe'
p5358
atp5359
asg9
(lp5360
S'orange_1'
p5361
asa(dp5362
g2
(lp5363
(S'REL'
p5364
(lp5365
S'furthest'
p5366
aS'to'
p5367
aS'the'
p5368
aS'right'
p5369
atp5370
asg9
(lp5371
S'orange_1'
p5372
asa(dp5373
g2
(lp5374
(S'REL'
p5375
(lp5376
S'on'
p5377
aS'the'
p5378
aS'right'
p5379
aS'hand'
p5380
aS'side'
p5381
atp5382
a(g95
S'syringe'
p5383
tp5384
a(g25
S'calib_tl'
p5385
tp5386
asg9
(lp5387
S'orange_1'
p5388
asa(dp5389
g2
(lp5390
(g86
(lp5391
S'syringe'
p5392
aS'calib_tl'
p5393
atp5394
asg9
(lp5395
S'orange_1'
p5396
asa(dp5397
g2
(lp5398
(g95
S'VIRTUAL_ME'
p5399
tp5400
asg9
(lp5401
S'orange_2'
p5402
asa(dp5403
g2
(lp5404
(g102
S'VIRTUAL_YOU'
p5405
tp5406
asg9
(lp5407
S'orange_2'
p5408
asa(dp5409
g2
(lp5410
(g95
S'VIRTUAL_ME'
p5411
tp5412
asg9
(lp5413
S'orange_2'
p5414
asa(dp5415
g2
(lp5416
(g300
S'VIRTUAL_YOU'
p5417
tp5418
asg9
(lp5419
S'orange_2'
p5420
asa(dp5421
g2
(lp5422
(g95
S'VIRTUAL_ME'
p5423
tp5424
asg9
(lp5425
S'orange_2'
p5426
asa(dp5427
g2
(lp5428
(g95
S'VIRTUAL_ME'
p5429
tp5430
a(g95
S'pickle'
p5431
tp5432
asg9
(lp5433
S'orange_2'
p5434
asa(dp5435
g2
(lp5436
(g95
S'VIRTUAL_ME'
p5437
tp5438
asg9
(lp5439
S'orange_2'
p5440
asa(dp5441
g2
(lp5442
(g86
(lp5443
S'pickle'
p5444
aS'syringe'
p5445
atp5446
asg9
(lp5447
S'orange_2'
p5448
asa(dp5449
g2
(lp5450
(g95
S'VIRTUAL_YOU'
p5451
tp5452
asg9
(lp5453
S'orange_3'
p5454
asa(dp5455
g2
(lp5456
(g95
S'VIRTUAL_YOU'
p5457
tp5458
asg9
(lp5459
S'orange_3'
p5460
asa(dp5461
g2
(lp5462
(S'REL'
p5463
(lp5464
S'on'
p5465
aS'your'
p5466
aS'right'
p5467
aS'side'
p5468
atp5469
a(g95
S'VIRTUAL_YOU'
p5470
tp5471
asg9
(lp5472
sa(dp5473
g2
(lp5474
(g86
(lp5475
S'black_bottle'
p5476
aS'calib_br'
p5477
atp5478
a(S'REL'
p5479
(lp5480
S'on'
p5481
aS'the'
p5482
aS'right'
p5483
atp5484
asg9
(lp5485
S'orange_3'
p5486
asa(dp5487
g2
(lp5488
(g179
S'calib_br'
p5489
tp5490
asg9
(lp5491
S'orange_3'
p5492
asa(dp5493
g2
(lp5494
(S'REL'
p5495
(lp5496
S'is'
p5497
aS'on'
p5498
aS'right'
p5499
atp5500
a(g102
S'VIRTUAL_YOU'
p5501
tp5502
asg9
(lp5503
S'orange_3'
p5504
asa(dp5505
g2
(lp5506
(g102
S'vaseline'
p5507
tp5508
asg9
(lp5509
S'orange_3'
p5510
asa(dp5511
g2
(lp5512
(g95
S'VIRTUAL_YOU'
p5513
tp5514
a(S'REL'
p5515
(lp5516
S'on'
p5517
aS'the'
p5518
aS'right'
p5519
aS'side'
p5520
atp5521
asg9
(lp5522
S'orange_3'
p5523
asa(dp5524
g2
(lp5525
(S'REL'
p5526
(lp5527
S'the'
p5528
aS'nearest'
p5529
aS'cube'
p5530
atp5531
a(g25
S'black_bottle'
p5532
tp5533
asg9
(lp5534
sa(dp5535
g2
(lp5536
(g102
S'VIRTUAL_YOU'
p5537
tp5538
a(NS'black_bottle'
p5539
tp5540
asg9
(lp5541
S'orange_4'
p5542
asa(dp5543
g2
(lp5544
(g25
S'black_bottle'
p5545
tp5546
asg9
(lp5547
S'orange_4'
p5548
asa(dp5549
g2
(lp5550
(g86
(lp5551
S'black_bottle'
p5552
aS'vaseline'
p5553
atp5554
asg9
(lp5555
S'orange_4'
p5556
asa(dp5557
g2
(lp5558
(g6
S'vaseline'
p5559
tp5560
asg9
(lp5561
S'orange_4'
p5562
asa(dp5563
g2
(lp5564
(g25
S'black_bottle'
p5565
tp5566
asg9
(lp5567
S'orange_4'
p5568
asa(dp5569
g2
(lp5570
(S'REL'
p5571
(lp5572
S'to'
p5573
aS'your'
p5574
aS'close'
p5575
aS'middle'
p5576
atp5577
asg9
(lp5578
S'orange_4'
p5579
asa(dp5580
g2
(lp5581
(g86
(lp5582
S'garlic_press'
p5583
aS'pickle'
p5584
atp5585
asg9
(lp5586
S'orange_5'
p5587
asa(dp5588
g2
(lp5589
(g86
(lp5590
S'pickle'
p5591
aS'garlic_press'
p5592
atp5593
asg9
(lp5594
S'orange_5'
p5595
asa(dp5596
g2
(lp5597
(g86
(lp5598
S'garlic_press'
p5599
aS'pickle'
p5600
atp5601
asg9
(lp5602
S'orange_5'
p5603
asa(dp5604
g2
(lp5605
(g86
(lp5606
S'pickle'
p5607
aS'garlic_press'
p5608
atp5609
asg9
(lp5610
S'orange_5'
p5611
asa(dp5612
g2
(lp5613
(g86
(lp5614
S'pickle'
p5615
aS'garlic_press'
p5616
atp5617
asg9
(lp5618
S'orange_5'
p5619
asa(dp5620
g2
(lp5621
(g86
(lp5622
S'pickle'
p5623
aS'garlic_press'
p5624
atp5625
asg9
(lp5626
S'orange_5'
p5627
asa(dp5628
g2
(lp5629
(g179
S'pickle'
p5630
tp5631
asg9
(lp5632
S'orange_5'
p5633
asa(dp5634
g2
(lp5635
(g25
S'toy_plane'
p5636
tp5637
asg9
(lp5638
S'orange_1'
p5639
asa(dp5640
g2
(lp5641
(g6
S'toy_plane'
p5642
tp5643
asg9
(lp5644
S'orange_1'
p5645
asa(dp5646
g2
(lp5647
(S'REL'
p5648
(lp5649
S'on'
p5650
aS'the'
p5651
aS'right'
p5652
aS'hand'
p5653
aS'side'
p5654
atp5655
a(g86
(lp5656
S'toy_plane'
p5657
aS'syringe'
p5658
atp5659
asg9
(lp5660
S'orange_1'
p5661
asa(dp5662
g2
(lp5663
(NS'toy_plane'
p5664
tp5665
asg9
(lp5666
S'orange_1'
p5667
asa(dp5668
g2
(lp5669
(g25
S'toy_plane'
p5670
tp5671
asg9
(lp5672
S'orange_1'
p5673
asa(dp5674
g2
(lp5675
(g25
S'toy_plane'
p5676
tp5677
asg9
(lp5678
S'orange_1'
p5679
asa(dp5680
g2
(lp5681
(S'REL'
p5682
(lp5683
S'on'
p5684
aS'the'
p5685
aS'right'
p5686
aS'most'
p5687
aS'side'
p5688
atp5689
a(g95
S'toy_plane'
p5690
tp5691
asg9
(lp5692
S'orange_1'
p5693
asa(dp5694
g2
(lp5695
(S'REL'
p5696
(lp5697
S'furthest'
p5698
aS'to'
p5699
aS'the'
p5700
aS'right'
p5701
atp5702
asg9
(lp5703
S'orange_1'
p5704
asa(dp5705
g2
(lp5706
(g86
(lp5707
S'toy_plane'
p5708
aS'calib_tl'
p5709
atp5710
asg9
(lp5711
S'orange_2'
p5712
asa(dp5713
g2
(lp5714
(g86
(lp5715
S'toy_plane'
p5716
aS'garlic_press'
p5717
atp5718
asg9
(lp5719
S'orange_2'
p5720
asa(dp5721
g2
(lp5722
(g179
S'toy_plane'
p5723
tp5724
asg9
(lp5725
S'orange_2'
p5726
asa(dp5727
g2
(lp5728
(g86
(lp5729
S'garlic_press'
p5730
aS'toy_plane'
p5731
atp5732
asg9
(lp5733
S'orange_2'
p5734
asa(dp5735
g2
(lp5736
(g95
S'VIRTUAL_YOU'
p5737
tp5738
a(S'REL'
p5739
(lp5740
S'on'
p5741
aS'your'
p5742
aS'right'
p5743
atp5744
a(g95
S'calib_tl'
p5745
tp5746
asg9
(lp5747
S'orange_2'
p5748
asa(dp5749
g2
(lp5750
(g86
(lp5751
S'garlic_press'
p5752
aS'toy_plane'
p5753
atp5754
asg9
(lp5755
S'orange_2'
p5756
asa(dp5757
g2
(lp5758
(g179
S'toy_plane'
p5759
tp5760
asg9
(lp5761
S'orange_2'
p5762
asa(dp5763
g2
(lp5764
(g179
S'toy_plane'
p5765
tp5766
asg9
(lp5767
sa(dp5768
g2
(lp5769
(S'REL'
p5770
(lp5771
S'in'
p5772
aS'the'
p5773
aS'middle'
p5774
atp5775
a(g86
(lp5776
S'garlic_press'
p5777
aS'toy_plane'
p5778
atp5779
asg9
(lp5780
S'orange_2'
p5781
asa(dp5782
g2
(lp5783
(g95
S'VIRTUAL_YOU'
p5784
tp5785
asg9
(lp5786
S'orange_3'
p5787
asa(dp5788
g2
(lp5789
(g102
S'VIRTUAL_YOU'
p5790
tp5791
asg9
(lp5792
S'orange_3'
p5793
asa(dp5794
g2
(lp5795
(g102
S'garlic_press'
p5796
tp5797
asg9
(lp5798
S'orange_3'
p5799
asa(dp5800
g2
(lp5801
(g95
S'VIRTUAL_YOU'
p5802
tp5803
asg9
(lp5804
S'orange_3'
p5805
asa(dp5806
g2
(lp5807
(g102
S'garlic_press'
p5808
tp5809
asg9
(lp5810
S'orange_3'
p5811
asa(dp5812
g2
(lp5813
(g95
S'VIRTUAL_YOU'
p5814
tp5815
asg9
(lp5816
S'orange_3'
p5817
asa(dp5818
g2
(lp5819
(g300
S'VIRTUAL_YOU'
p5820
tp5821
asg9
(lp5822
S'orange_3'
p5823
asa(dp5824
g2
(lp5825
(g95
S'VIRTUAL_YOU'
p5826
tp5827
asg9
(lp5828
S'orange_3'
p5829
asa(dp5830
g2
(lp5831
(S'REL'
p5832
(lp5833
S'to'
p5834
aS'your'
p5835
aS'close'
p5836
aS'front'
p5837
atp5838
asg9
(lp5839
S'orange_3'
p5840
asa(dp5841
g2
(lp5842
(g86
(lp5843
S'syringe'
p5844
aS'calib_br'
p5845
atp5846
asg9
(lp5847
S'orange_4'
p5848
asa(dp5849
g2
(lp5850
(g95
S'VIRTUAL_ME'
p5851
tp5852
asg9
(lp5853
S'orange_4'
p5854
asa(dp5855
g2
(lp5856
(g102
S'VIRTUAL_ME'
p5857
tp5858
asg9
(lp5859
S'orange_4'
p5860
asa(dp5861
g2
(lp5862
(g95
S'VIRTUAL_ME'
p5863
tp5864
asg9
(lp5865
S'orange_4'
p5866
asa(dp5867
g2
(lp5868
(g86
(lp5869
S'vaseline'
p5870
aS'syringe'
p5871
atp5872
asg9
(lp5873
S'orange_4'
p5874
asa(dp5875
g2
(lp5876
(g95
S'VIRTUAL_ME'
p5877
tp5878
asg9
(lp5879
S'orange_4'
p5880
asa(dp5881
g2
(lp5882
(g86
(lp5883
S'vaseline'
p5884
aS'syringe'
p5885
atp5886
asg9
(lp5887
S'orange_4'
p5888
asa(dp5889
g2
(lp5890
(g86
(lp5891
S'garlic_press'
p5892
aS'vaseline'
p5893
atp5894
asg9
(lp5895
S'orange_5'
p5896
asa(dp5897
g2
(lp5898
(S'REL'
p5899
(lp5900
S'in'
p5901
aS'the'
p5902
aS'middle'
p5903
atp5904
a(g86
(lp5905
S'garlic_press'
p5906
aS'vaseline'
p5907
atp5908
asg9
(lp5909
S'orange_5'
p5910
asa(dp5911
g2
(lp5912
(g86
(lp5913
S'garlic_press'
p5914
aS'vaseline'
p5915
atp5916
asg9
(lp5917
S'orange_5'
p5918
asa(dp5919
g2
(lp5920
(g6
S'pickle'
p5921
tp5922
asg9
(lp5923
S'orange_5'
p5924
asa(dp5925
g2
(lp5926
(S'REL'
p5927
(lp5928
S'on'
p5929
aS'right'
p5930
atp5931
asg9
(lp5932
S'orange_5'
p5933
asa(dp5934
g2
(lp5935
(g86
(lp5936
S'garlic_press'
p5937
aS'vaseline'
p5938
atp5939
asg9
(lp5940
S'orange_5'
p5941
asa(dp5942
g2
(lp5943
(g86
(lp5944
S'vaseline'
p5945
aS'garlic_press'
p5946
atp5947
asg9
(lp5948
S'orange_5'
p5949
asa(dp5950
g2
(lp5951
(g102
S'vaseline'
p5952
tp5953
asg9
(lp5954
S'orange_5'
p5955
asa(dp5956
g2
(lp5957
(S'REL'
p5958
(lp5959
S'to'
p5960
aS'the'
p5961
aS'left'
p5962
atp5963
asg9
(lp5964
S'orange_1'
p5965
asa(dp5966
g2
(lp5967
(g25
S'wood_bowl'
p5968
tp5969
asg9
(lp5970
S'orange_1'
p5971
asa(dp5972
g2
(lp5973
(S'REL'
p5974
(lp5975
S'furthest'
p5976
aS'to'
p5977
aS'the'
p5978
aS'right'
p5979
atp5980
asg9
(lp5981
S'orange_1'
p5982
asa(dp5983
g2
(lp5984
(S'REL'
p5985
(lp5986
S'on'
p5987
aS'the'
p5988
aS'far'
p5989
aS'right'
p5990
atp5991
asg9
(lp5992
S'orange_1'
p5993
asa(dp5994
g2
(lp5995
(g25
S'wood_bowl'
p5996
tp5997
asg9
(lp5998
S'orange_1'
p5999
asa(dp6000
g2
(lp6001
(g25
S'wood_bowl'
p6002
tp6003
asg9
(lp6004
S'orange_1'
p6005
asa(dp6006
g2
(lp6007
(g25
S'wood_bowl'
p6008
tp6009
asg9
(lp6010
S'orange_1'
p6011
asa(dp6012
g2
(lp6013
(g86
(lp6014
S'vaseline'
p6015
aS''
p6016
atp6017
asg9
(lp6018
S'orange_2'
p6019
asa(dp6020
g2
(lp6021
(g95
S'vaseline'
p6022
tp6023
a(g95
S'wood_bowl'
p6024
tp6025
asg9
(lp6026
S'orange_2'
p6027
asa(dp6028
g2
(lp6029
(g95
S'wood_bowl'
p6030
tp6031
asg9
(lp6032
S'orange_2'
p6033
asa(dp6034
g2
(lp6035
(g102
S'vaseline'
p6036
tp6037
asg9
(lp6038
S'orange_2'
p6039
asa(dp6040
g2
(lp6041
(g102
S'vaseline'
p6042
tp6043
asg9
(lp6044
S'orange_2'
p6045
asa(dp6046
g2
(lp6047
(g102
S'vaseline'
p6048
tp6049
a(g179
S'wood_bowl'
p6050
tp6051
asg9
(lp6052
S'orange_2'
p6053
asa(dp6054
g2
(lp6055
(g102
S'vaseline'
p6056
tp6057
asg9
(lp6058
S'orange_2'
p6059
asa(dp6060
g2
(lp6061
(Ng4
tp6062
a(g6
S'vaseline'
p6063
tp6064
asg9
(lp6065
S'orange_2'
p6066
asa(dp6067
g2
(lp6068
(g86
(lp6069
S'pickle'
p6070
aS'wood_bowl'
p6071
atp6072
asg9
(lp6073
S'orange_3'
p6074
asa(dp6075
g2
(lp6076
(g95
S'pickle'
p6077
tp6078
a(NS'wood_bowl'
p6079
tp6080
asg9
(lp6081
S'orange_3'
p6082
asa(dp6083
g2
(lp6084
(g86
(lp6085
S'wood_bowl'
p6086
aS'pickle'
p6087
atp6088
asg9
(lp6089
S'orange_3'
p6090
asa(dp6091
g2
(lp6092
(g86
(lp6093
S'pickle'
p6094
aS'wood_bowl'
p6095
atp6096
asg9
(lp6097
S'orange_3'
p6098
asa(dp6099
g2
(lp6100
(g95
S'syringe'
p6101
tp6102
asg9
(lp6103
S'orange_3'
p6104
asa(dp6105
g2
(lp6106
(g6
S'syringe'
p6107
tp6108
asg9
(lp6109
S'orange_3'
p6110
asa(dp6111
g2
(lp6112
(g86
(lp6113
S'syringe'
p6114
aS'pickle'
p6115
atp6116
asg9
(lp6117
S'orange_3'
p6118
asa(dp6119
g2
(lp6120
(g6
S'pickle'
p6121
tp6122
asg9
(lp6123
S'orange_3'
p6124
asa(dp6125
g2
(lp6126
(g95
S'VIRTUAL_YOU'
p6127
tp6128
asg9
(lp6129
S'orange_4'
p6130
asa(dp6131
g2
(lp6132
(g95
S'VIRTUAL_YOU'
p6133
tp6134
asg9
(lp6135
S'orange_4'
p6136
asa(dp6137
g2
(lp6138
(g95
S'VIRTUAL_YOU'
p6139
tp6140
asg9
(lp6141
S'orange_4'
p6142
asa(dp6143
g2
(lp6144
(g95
S'VIRTUAL_YOU'
p6145
tp6146
asg9
(lp6147
S'orange_4'
p6148
asa(dp6149
g2
(lp6150
(g102
S'pickle'
p6151
tp6152
asg9
(lp6153
S'orange_4'
p6154
asa(dp6155
g2
(lp6156
sg9
(lp6157
S'orange_4'
p6158
aS'orange_4'
p6159
asa(dp6160
g2
(lp6161
(g95
S'VIRTUAL_YOU'
p6162
tp6163
asg9
(lp6164
S'orange_4'
p6165
asa(dp6166
g2
(lp6167
(S'REL'
p6168
(lp6169
S'to'
p6170
aS'the'
p6171
aS'left'
p6172
atp6173
asg9
(lp6174
S'orange_5'
p6175
asa(dp6176
g2
(lp6177
(g25
S'pickle'
p6178
tp6179
asg9
(lp6180
S'orange_5'
p6181
asa(dp6182
g2
(lp6183
(S'REL'
p6184
(lp6185
S'furthest'
p6186
aS'on'
p6187
aS'your'
p6188
aS'left'
p6189
atp6190
asg9
(lp6191
S'orange_5'
p6192
asa(dp6193
g2
(lp6194
(g25
S'pickle'
p6195
tp6196
asg9
(lp6197
S'orange_5'
p6198
asa(dp6199
g2
(lp6200
(g86
(lp6201
S'pickle'
p6202
aS'garlic_press'
p6203
atp6204
asg9
(lp6205
S'orange_5'
p6206
asa(dp6207
g2
(lp6208
(g25
S'pickle'
p6209
tp6210
asg9
(lp6211
S'orange_5'
p6212
asa(dp6213
g2
(lp6214
(g86
(lp6215
S'pickle'
p6216
aS'garlic_press'
p6217
atp6218
asg9
(lp6219
S'orange_5'
p6220
asa(dp6221
g2
(lp6222
(S'REL'
p6223
(lp6224
S'furthest'
p6225
aS'to'
p6226
aS'the'
p6227
aS'left'
p6228
atp6229
asg9
(lp6230
S'orange_5'
p6231
asa(dp6232
g2
(lp6233
(g6
S'black_bottle'
p6234
tp6235
asg9
(lp6236
S'orange_1'
p6237
asa(dp6238
g2
(lp6239
(S'REL'
p6240
(lp6241
S'furthest'
p6242
aS'to'
p6243
aS'the'
p6244
aS'right'
p6245
atp6246
asg9
(lp6247
S'orange_1'
p6248
asa(dp6249
g2
(lp6250
(g6
g4
tp6251
a(g102
S'pickle'
p6252
tp6253
asg9
(lp6254
S'orange_1'
p6255
asa(dp6256
g2
(lp6257
(S'REL'
p6258
(lp6259
S'furthest'
p6260
aS'on'
p6261
aS'your'
p6262
aS'right'
p6263
atp6264
asg9
(lp6265
S'orange_1'
p6266
asa(dp6267
g2
(lp6268
(S'REL'
p6269
(lp6270
S'the'
p6271
aS'right'
p6272
aS'most'
p6273
atp6274
a(g102
S'pickle'
p6275
tp6276
asg9
(lp6277
S'orange_1'
p6278
asa(dp6279
g2
(lp6280
(S'REL'
p6281
(lp6282
S'furthest'
p6283
aS'to'
p6284
aS'the'
p6285
aS'right'
p6286
atp6287
asg9
(lp6288
S'orange_1'
p6289
asa(dp6290
g2
(lp6291
(g6
S'black_bottle'
p6292
tp6293
asg9
(lp6294
S'orange_1'
p6295
asa(dp6296
g2
(lp6297
(g300
g4
tp6298
a(g6
S'VIRTUAL_YOU'
p6299
tp6300
asg9
(lp6301
S'orange_2'
p6302
asa(dp6303
g2
(lp6304
(g95
S'VIRTUAL_ME'
p6305
tp6306
a(S'REL'
p6307
(lp6308
S'on'
p6309
aS'the'
p6310
aS'right'
p6311
aS'side'
p6312
atp6313
asg9
(lp6314
S'orange_2'
p6315
asa(dp6316
g2
(lp6317
(g95
S'VIRTUAL_ME'
p6318
tp6319
a(S'REL'
p6320
(lp6321
S'on'
p6322
aS'my'
p6323
aS'left'
p6324
atp6325
asg9
(lp6326
S'orange_2'
p6327
asa(dp6328
g2
(lp6329
(g25
S'pickle'
p6330
tp6331
asg9
(lp6332
S'orange_2'
p6333
asa(dp6334
g2
(lp6335
(g25
S'pickle'
p6336
tp6337
asg9
(lp6338
S'orange_2'
p6339
asa(dp6340
g2
(lp6341
(g25
S'pickle'
p6342
tp6343
asg9
(lp6344
S'orange_2'
p6345
asa(dp6346
g2
(lp6347
(g25
S'pickle'
p6348
tp6349
asg9
(lp6350
S'orange_2'
p6351
asa(dp6352
g2
(lp6353
(g102
S'VIRTUAL_YOU'
p6354
tp6355
a(S'REL'
p6356
(lp6357
S'facing'
p6358
aS'robots'
p6359
aS'right'
p6360
aS'side'
p6361
atp6362
asg9
(lp6363
S'orange_3'
p6364
asa(dp6365
g2
(lp6366
(g102
S'VIRTUAL_YOU'
p6367
tp6368
a(g86
(lp6369
S'black_bottle'
p6370
aS'syringe'
p6371
atp6372
asg9
(lp6373
S'orange_3'
p6374
asa(dp6375
g2
(lp6376
(g86
(lp6377
S'syringe'
p6378
aS'black_bottle'
p6379
atp6380
asg9
(lp6381
S'orange_3'
p6382
asa(dp6383
g2
(lp6384
(g179
S'black_bottle'
p6385
tp6386
asg9
(lp6387
sa(dp6388
g2
(lp6389
(g179
S'black_bottle'
p6390
tp6391
asg9
(lp6392
S'orange_3'
p6393
asa(dp6394
g2
(lp6395
(g86
(lp6396
S'syringe'
p6397
aS'black_bottle'
p6398
atp6399
asg9
(lp6400
S'orange_3'
p6401
asa(dp6402
g2
(lp6403
(g86
(lp6404
S'black_bottle'
p6405
aS'syringe'
p6406
atp6407
asg9
(lp6408
S'orange_3'
p6409
asa(dp6410
g2
(lp6411
(g95
S'VIRTUAL_TABLE'
p6412
tp6413
a(S'REL'
p6414
(lp6415
S'a'
p6416
aS'little'
p6417
aS'to'
p6418
aS'the'
p6419
aS'right'
p6420
atp6421
asg9
(lp6422
S'orange_3'
p6423
asa(dp6424
g2
(lp6425
(g25
S'garlic_press'
p6426
tp6427
asg9
(lp6428
S'orange_4'
p6429
asa(dp6430
g2
(lp6431
(g25
S'garlic_press'
p6432
tp6433
asg9
(lp6434
S'orange_4'
p6435
asa(dp6436
g2
(lp6437
(g95
S'VIRTUAL_ME'
p6438
tp6439
a(S'REL'
p6440
(lp6441
S'in'
p6442
aS'the'
p6443
aS'middle'
p6444
atp6445
asg9
(lp6446
S'orange_4'
p6447
asa(dp6448
g2
(lp6449
(g25
S'garlic_press'
p6450
tp6451
asg9
(lp6452
S'orange_4'
p6453
asa(dp6454
g2
(lp6455
(g25
S'garlic_press'
p6456
tp6457
asg9
(lp6458
S'orange_4'
p6459
asa(dp6460
g2
(lp6461
(g25
S'garlic_press'
p6462
tp6463
asg9
(lp6464
S'orange_4'
p6465
asa(dp6466
g2
(lp6467
(g102
S'VIRTUAL_ME'
p6468
tp6469
asg9
(lp6470
S'orange_4'
p6471
asa(dp6472
g2
(lp6473
(g102
S'garlic_press'
p6474
tp6475
asg9
(lp6476
S'orange_5'
p6477
asa(dp6478
g2
(lp6479
(g102
S'garlic_press'
p6480
tp6481
asg9
(lp6482
S'orange_5'
p6483
asa(dp6484
g2
(lp6485
(S'REL'
p6486
(lp6487
S'furthest'
p6488
aS'on'
p6489
aS'your'
p6490
aS'left'
p6491
atp6492
asg9
(lp6493
S'orange_5'
p6494
asa(dp6495
g2
(lp6496
(g102
S'garlic_press'
p6497
tp6498
asg9
(lp6499
S'orange_5'
p6500
asa(dp6501
g2
(lp6502
(S'REL'
p6503
(lp6504
S'furthest'
p6505
aS'to'
p6506
aS'the'
p6507
aS'left'
p6508
atp6509
a(g95
S'VIRTUAL_YOU'
p6510
tp6511
asg9
(lp6512
S'orange_5'
p6513
asa(dp6514
g2
(lp6515
(g179
S'syringe'
p6516
tp6517
asg9
(lp6518
S'orange_5'
p6519
asa(dp6520
g2
(lp6521
(g86
(lp6522
S'calib_br'
p6523
aS'garlic_press'
p6524
atp6525
a(g95
S'VIRTUAL_YOU'
p6526
tp6527
asg9
(lp6528
S'orange_5'
p6529
asa.